	.file	"main.c"
	.option nopic
	.attribute arch, "rv32i2p0_m2p0_f2p0_c2p0"
	.attribute unaligned_access, 0
	.attribute stack_align, 16
	.text
.Ltext0:
	.cfi_sections	.debug_frame
	.globl	__gedf2
	.section	.text.task_buzzer,"ax",@progbits
	.align	1
	.globl	task_buzzer
	.type	task_buzzer, @function
task_buzzer:
.LFB5:
	.file 1 "/home/parag/bl_iot_sdk/customer_app/SWEMS/SWEMS/buzzer.c"
	.loc 1 24 1
	.cfi_startproc
	.loc 1 26 5
	.loc 1 24 1 is_stmt 0
	addi	sp,sp,-32
	.cfi_def_cfa_offset 32
	.loc 1 26 5
	li	a2,0
	li	a1,0
	li	a0,1
	.loc 1 24 1
	sw	ra,28(sp)
	sw	s0,24(sp)
	sw	s1,20(sp)
	sw	s2,16(sp)
	sw	s3,12(sp)
	sw	s4,8(sp)
	sw	s5,4(sp)
	sw	s6,0(sp)
	.cfi_offset 1, -4
	.cfi_offset 8, -8
	.cfi_offset 9, -12
	.cfi_offset 18, -16
	.cfi_offset 19, -20
	.cfi_offset 20, -24
	.cfi_offset 21, -28
	.cfi_offset 22, -32
	.loc 1 26 5
	call	bl_gpio_enable_output
.LVL0:
	.loc 1 27 5 is_stmt 1
	li	a1,0
	li	a0,1
	call	bl_gpio_output_set
.LVL1:
	.loc 1 31 12 is_stmt 0
	lui	a5,%hi(.LC0)
	lw	s2,%lo(.LC0)(a5)
	lw	s3,%lo(.LC0+4)(a5)
	.loc 1 31 17
	lui	s0,%hi(.LANCHOR0)
	.loc 1 31 39
	lui	s1,%hi(temp)
	.loc 1 31 44
	li	s4,309
	.loc 1 31 83
	lui	s5,%hi(humidity)
	.loc 1 31 64
	li	s6,599
.L2:
	.loc 1 29 5 is_stmt 1
	.loc 1 31 9
	.loc 1 31 12 is_stmt 0
	lw	a0,%lo(.LANCHOR0)(s0)
	lw	a1,%lo(.LANCHOR0+4)(s0)
	mv	a2,s2
	mv	a3,s3
	call	__gedf2
.LVL2:
	bge	a0,zero,.L3
	.loc 1 31 44 discriminator 1
	lhu	a5,%lo(temp)(s1)
	addi	a5,a5,-100
	slli	a5,a5,16
	srli	a5,a5,16
	bgtu	a5,s4,.L3
	.loc 1 31 64 discriminator 3
	lhu	a5,%lo(humidity)(s5)
	bleu	a5,s6,.L4
.L3:
	.loc 1 35 13 is_stmt 1
	li	a1,1
	li	a0,1
	call	bl_gpio_output_set
.LVL3:
	.loc 1 36 13
	li	a0,200
	call	vTaskDelay
.LVL4:
	.loc 1 39 13
	li	a1,0
	li	a0,1
	call	bl_gpio_output_set
.LVL5:
	.loc 1 40 13
	li	a0,100
	call	vTaskDelay
.LVL6:
	j	.L2
.L4:
	.loc 1 44 13
	li	a1,0
	li	a0,1
	call	bl_gpio_output_set
.LVL7:
	j	.L2
	.cfi_endproc
.LFE5:
	.size	task_buzzer, .-task_buzzer
	.section	.text.init_adc.part.0,"ax",@progbits
	.align	1
	.type	init_adc.part.0, @function
init_adc.part.0:
.LFB36:
	.file 2 "/home/parag/bl_iot_sdk/customer_app/SWEMS/SWEMS/mq4.c"
	.loc 2 100 6
	.cfi_startproc
.LVL8:
	.loc 2 106 5
	.loc 2 113 3
	.loc 2 100 6 is_stmt 0
	addi	sp,sp,-16
	.cfi_def_cfa_offset 16
	.loc 2 113 3
	li	a1,4096
	li	a0,1
	.loc 2 100 6
	sw	ra,12(sp)
	sw	s0,8(sp)
	.cfi_offset 1, -4
	.cfi_offset 8, -8
	.loc 2 113 3
	call	bl_adc_freq_init
.LVL9:
	.loc 2 115 3 is_stmt 1
	li	a1,14
	li	a0,1
	call	bl_adc_init
.LVL10:
	.loc 2 117 3
.LBB10:
.LBB11:
	.loc 2 72 3
	.loc 2 72 12 is_stmt 0
	li	a3,1073807360
	lw	a5,-1772(a3)
.LVL11:
	.loc 2 74 3 is_stmt 1
	.loc 2 75 3
	.loc 2 77 3
	.loc 2 79 5
	.loc 2 86 3
	li	a4,-264355840
	addi	a4,a4,-1
	and	a5,a5,a4
.LVL12:
	.loc 2 87 3
	.loc 2 89 5
	.loc 2 89 9 is_stmt 0
	li	a4,37822464
	or	a5,a5,a4
.LVL13:
	.loc 2 96 3 is_stmt 1
	.loc 2 96 59 is_stmt 0
	sw	a5,-1772(a3)
	.loc 2 97 3 is_stmt 1
.LVL14:
.LBE11:
.LBE10:
	.loc 2 119 3
	li	a1,1024
	li	a0,1
	call	bl_adc_dma_init
.LVL15:
	.loc 2 121 3
	li	a0,14
	call	bl_adc_gpio_init
.LVL16:
	.loc 2 123 3
	.loc 2 123 17 is_stmt 0
	li	a0,14
	call	bl_adc_get_channel_by_gpio
.LVL17:
	mv	s0,a0
.LVL18:
	.loc 2 124 3 is_stmt 1
	.loc 2 124 20 is_stmt 0
	li	a0,1
	call	bl_dma_find_ctx_by_channel
.LVL19:
	.loc 2 125 3 is_stmt 1
	.loc 2 125 30 is_stmt 0
	li	a5,1
	sll	a4,a5,s0
	.loc 2 125 24
	lw	a5,16(a0)
	or	a5,a5,a4
	sw	a5,16(a0)
	.loc 2 127 3 is_stmt 1
	.loc 2 128 1 is_stmt 0
	lw	s0,8(sp)
	.cfi_restore 8
.LVL20:
	lw	ra,12(sp)
	.cfi_restore 1
	addi	sp,sp,16
	.cfi_def_cfa_offset 0
	.loc 2 127 3
	tail	bl_adc_start
.LVL21:
	.cfi_endproc
.LFE36:
	.size	init_adc.part.0, .-init_adc.part.0
	.section	.text.init_adc,"ax",@progbits
	.align	1
	.globl	init_adc
	.type	init_adc, @function
init_adc:
.LFB30:
	.loc 2 101 1 is_stmt 1
	.cfi_startproc
.LVL22:
	.loc 2 102 3
	li	a5,14
	beq	a0,a5,.L10
	.loc 2 109 5
	lui	a0,%hi(.LC1)
.LVL23:
	addi	a0,a0,%lo(.LC1)
	tail	printf
.LVL24:
.L10:
	tail	init_adc.part.0
.LVL25:
	.cfi_endproc
.LFE30:
	.size	init_adc, .-init_adc
	.section	.text.read_adc,"ax",@progbits
	.align	1
	.globl	read_adc
	.type	read_adc, @function
read_adc:
.LFB31:
	.loc 2 131 1
	.cfi_startproc
	.loc 2 132 3
	.loc 2 134 3
	.loc 2 131 1 is_stmt 0
	addi	sp,sp,-16
	.cfi_def_cfa_offset 16
	.loc 2 134 20
	li	a0,1
	.loc 2 131 1
	sw	ra,12(sp)
	sw	s0,8(sp)
	.cfi_offset 1, -4
	.cfi_offset 8, -8
	.loc 2 134 20
	call	bl_dma_find_ctx_by_channel
.LVL26:
	.loc 2 136 3 is_stmt 1
	.loc 2 136 10 is_stmt 0
	lw	a1,4(a0)
	li	a0,0
.LVL27:
	.loc 2 136 6
	beq	a1,zero,.L11
	.loc 2 141 3 is_stmt 1
	lui	s0,%hi(adc_data.4352)
	li	a2,4096
	addi	a0,s0,%lo(adc_data.4352)
	call	memcpy
.LVL28:
	.loc 2 146 3
	.loc 2 147 3
	.loc 2 147 8
	addi	a5,s0,%lo(adc_data.4352)
	li	a3,4096
.LBB16:
.LBB17:
.LBB18:
.LBB19:
	.loc 2 149 37 is_stmt 0
	li	a1,65536
	.loc 2 149 47
	li	a2,32768
	add	a3,a5,a3
.LBE19:
.LBE18:
	.loc 2 146 12
	li	a0,0
.LBB21:
.LBB20:
	.loc 2 149 37
	addi	a1,a1,-1
	.loc 2 149 47
	addi	a2,a2,-768
.LVL29:
.L13:
	.loc 2 149 5 is_stmt 1
	.loc 2 150 5
	.loc 2 149 37 is_stmt 0
	lw	a4,0(a5)
	addi	a5,a5,4
.LVL30:
	and	a4,a4,a1
.LVL31:
	.loc 2 149 47
	mul	a4,a4,a2
	.loc 2 149 14
	srli	a4,a4,16
	.loc 2 150 9
	add	a0,a0,a4
.LVL32:
.LBE20:
	.loc 2 147 3
	bne	a3,a5,.L13
.LBE21:
	.loc 2 153 3 is_stmt 1
	.loc 2 153 14 is_stmt 0
	srli	a0,a0,10
.LVL33:
.L11:
.LBE17:
.LBE16:
	.loc 2 154 1
	lw	ra,12(sp)
	.cfi_restore 1
	lw	s0,8(sp)
	.cfi_restore 8
	addi	sp,sp,16
	.cfi_def_cfa_offset 0
	jr	ra
	.cfi_endproc
.LFE31:
	.size	read_adc, .-read_adc
	.globl	__floatunsidf
	.globl	__divdf3
	.globl	__muldf3
	.globl	__nedf2
	.globl	__subdf3
	.globl	__adddf3
	.section	.text.task_mq4,"ax",@progbits
	.align	1
	.globl	task_mq4
	.type	task_mq4, @function
task_mq4:
.LFB28:
	.loc 2 29 1 is_stmt 1
	.cfi_startproc
.LVL34:
	.loc 2 30 3
	lui	a0,%hi(.LC2)
.LVL35:
	.loc 2 29 1 is_stmt 0
	addi	sp,sp,-64
	.cfi_def_cfa_offset 64
	.loc 2 30 3
	addi	a0,a0,%lo(.LC2)
	.loc 2 29 1
	sw	ra,60(sp)
	sw	s0,56(sp)
	sw	s1,52(sp)
	sw	s2,48(sp)
	sw	s3,44(sp)
	sw	s4,40(sp)
	sw	s5,36(sp)
	sw	s6,32(sp)
	sw	s7,28(sp)
	sw	s8,24(sp)
	sw	s9,20(sp)
	sw	s10,16(sp)
	sw	s11,12(sp)
	.cfi_offset 1, -4
	.cfi_offset 8, -8
	.cfi_offset 9, -12
	.cfi_offset 18, -16
	.cfi_offset 19, -20
	.cfi_offset 20, -24
	.cfi_offset 21, -28
	.cfi_offset 22, -32
	.cfi_offset 23, -36
	.cfi_offset 24, -40
	.cfi_offset 25, -44
	.cfi_offset 26, -48
	.cfi_offset 27, -52
	.loc 2 30 3
	call	printf
.LVL36:
	.loc 2 32 3 is_stmt 1
.LBB22:
.LBB23:
	.loc 2 102 3
	call	init_adc.part.0
.LVL37:
.LBE23:
.LBE22:
	.loc 2 34 3
	lui	a0,%hi(.LC3)
	addi	a0,a0,%lo(.LC3)
	call	printf
.LVL38:
	.loc 2 36 3
	li	a0,2000
	call	vTaskDelay
.LVL39:
.LBB24:
	.loc 2 42 12 is_stmt 0
	lui	a5,%hi(.LC4)
	lw	s8,%lo(.LC4)(a5)
	lw	s9,%lo(.LC4+4)(a5)
	.loc 2 44 12
	lui	a5,%hi(.LC5)
	lw	s0,%lo(.LC5)(a5)
	lw	s1,%lo(.LC5+4)(a5)
.LBB25:
	.loc 2 56 36
	lui	a5,%hi(.LC6)
	lw	s2,%lo(.LC6)(a5)
	lw	s3,%lo(.LC6+4)(a5)
	.loc 2 56 14
	lui	a5,%hi(.LC7)
	lw	s4,%lo(.LC7)(a5)
	lw	s5,%lo(.LC7+4)(a5)
	.loc 2 59 13
	lui	a5,%hi(.LC11)
	lw	s6,%lo(.LC11)(a5)
	lw	s7,%lo(.LC11+4)(a5)
.L21:
.LBE25:
.LBE24:
	.loc 2 38 3 is_stmt 1
.LBB27:
	.loc 2 40 5
	.loc 2 40 25 is_stmt 0
	call	read_adc
.LVL40:
	.loc 2 42 5 is_stmt 1
	.loc 2 44 5
	.loc 2 42 26 is_stmt 0
	call	__floatunsidf
.LVL41:
	.loc 2 42 12
	mv	a2,s8
	mv	a3,s9
	call	__divdf3
.LVL42:
	.loc 2 44 12
	mv	a2,s0
	mv	a3,s1
	call	__muldf3
.LVL43:
	.loc 2 51 8
	li	a2,0
	li	a3,0
	.loc 2 44 12
	mv	s10,a0
	mv	s11,a1
.LVL44:
	.loc 2 51 5 is_stmt 1
	.loc 2 51 8 is_stmt 0
	call	__nedf2
.LVL45:
	beq	a0,zero,.L19
.LBB26:
	.loc 2 53 7 is_stmt 1
.LVL46:
	.loc 2 54 7
	.loc 2 55 7
	.loc 2 56 7
	.loc 2 57 7
	.loc 2 58 7
	.loc 2 56 36 is_stmt 0
	mv	a2,s10
	mv	a3,s11
	mv	a0,s2
	mv	a1,s3
	call	__divdf3
.LVL47:
	.loc 2 56 14
	mv	a2,s4
	mv	a3,s5
	call	__subdf3
.LVL48:
	.loc 2 57 14
	lui	a5,%hi(.LC8)
	lw	a2,%lo(.LC8)(a5)
	lw	a3,%lo(.LC8+4)(a5)
	call	__divdf3
.LVL49:
	.loc 2 58 25
	call	log10
.LVL50:
	.loc 2 59 7 is_stmt 1
	.loc 2 58 38 is_stmt 0
	lui	a5,%hi(.LC9)
	lw	a2,%lo(.LC9)(a5)
	lw	a3,%lo(.LC9+4)(a5)
	call	__subdf3
.LVL51:
	.loc 2 58 14
	lui	a5,%hi(.LC10)
	lw	a2,%lo(.LC10)(a5)
	lw	a3,%lo(.LC10+4)(a5)
	call	__divdf3
.LVL52:
	.loc 2 59 13
	mv	a2,a0
	mv	a3,a1
	mv	a0,s6
	mv	a1,s7
	call	pow
.LVL53:
	.loc 2 59 30
	lui	a5,%hi(.LC12)
	lw	a2,%lo(.LC12)(a5)
	lw	a3,%lo(.LC12+4)(a5)
	call	__adddf3
.LVL54:
	.loc 2 59 11
	lui	a5,%hi(.LANCHOR0)
	.loc 2 59 30
	mv	a2,a0
	.loc 2 59 11
	sw	a0,%lo(.LANCHOR0)(a5)
	.loc 2 61 7
	lui	a0,%hi(.LC13)
	.loc 2 59 30
	mv	a3,a1
	.loc 2 61 7
	addi	a0,a0,%lo(.LC13)
	.loc 2 59 11
	sw	a1,%lo(.LANCHOR0+4)(a5)
	.loc 2 61 7 is_stmt 1
	call	printf
.LVL55:
.L19:
.LBE26:
	.loc 2 64 5
	li	a0,4096
	addi	a0,a0,904
	call	vTaskDelay
.LVL56:
.LBE27:
	.loc 2 39 3 is_stmt 0
	j	.L21
	.cfi_endproc
.LFE28:
	.size	task_mq4, .-task_mq4
	.section	.text.initiateGPIO,"ax",@progbits
	.align	1
	.globl	initiateGPIO
	.type	initiateGPIO, @function
initiateGPIO:
.LFB32:
	.file 3 "/home/parag/bl_iot_sdk/customer_app/SWEMS/SWEMS/dht.c"
	.loc 3 19 1 is_stmt 1
	.cfi_startproc
	.loc 3 20 3
	li	a2,0
	li	a1,0
	li	a0,5
	tail	bl_gpio_enable_output
.LVL57:
	.cfi_endproc
.LFE32:
	.size	initiateGPIO, .-initiateGPIO
	.section	.text.sendStartSignal,"ax",@progbits
	.align	1
	.globl	sendStartSignal
	.type	sendStartSignal, @function
sendStartSignal:
.LFB33:
	.loc 3 23 1
	.cfi_startproc
	.loc 3 24 3
	.loc 3 23 1 is_stmt 0
	addi	sp,sp,-16
	.cfi_def_cfa_offset 16
	.loc 3 24 3
	li	a1,0
	li	a0,5
	.loc 3 23 1
	sw	ra,12(sp)
	.cfi_offset 1, -4
	.loc 3 24 3
	call	bl_gpio_output_set
.LVL58:
	.loc 3 25 3 is_stmt 1
	li	a0,1
	call	vTaskDelay
.LVL59:
	.loc 3 27 3
	li	a1,1
	li	a0,5
	call	bl_gpio_output_set
.LVL60:
	.loc 3 28 3
	.loc 3 29 1 is_stmt 0
	lw	ra,12(sp)
	.cfi_restore 1
	.loc 3 28 3
	li	a0,30
	.loc 3 29 1
	addi	sp,sp,16
	.cfi_def_cfa_offset 0
	.loc 3 28 3
	tail	bl_timer_delay_us
.LVL61:
	.cfi_endproc
.LFE33:
	.size	sendStartSignal, .-sendStartSignal
	.section	.text.task_dht,"ax",@progbits
	.align	1
	.globl	task_dht
	.type	task_dht, @function
task_dht:
.LFB34:
	.loc 3 32 1 is_stmt 1
	.cfi_startproc
.LVL62:
	.loc 3 33 3
	lui	a0,%hi(.LC14)
.LVL63:
	.loc 3 32 1 is_stmt 0
	addi	sp,sp,-64
	.cfi_def_cfa_offset 64
	.loc 3 33 3
	addi	a0,a0,%lo(.LC14)
	.loc 3 32 1
	sw	s1,52(sp)
	sw	s2,48(sp)
	sw	s3,44(sp)
	sw	s4,40(sp)
	sw	s5,36(sp)
	sw	s6,32(sp)
	sw	s7,28(sp)
	sw	ra,60(sp)
	sw	s0,56(sp)
	sw	s8,24(sp)
	.cfi_offset 9, -12
	.cfi_offset 18, -16
	.cfi_offset 19, -20
	.cfi_offset 20, -24
	.cfi_offset 21, -28
	.cfi_offset 22, -32
	.cfi_offset 23, -36
	.cfi_offset 1, -4
	.cfi_offset 8, -8
	.cfi_offset 24, -40
.LBB28:
	.loc 3 42 11
	li	s1,1
.LBE28:
	.loc 3 33 3
	call	printf
.LVL64:
.LBB30:
	.loc 3 64 14
	lui	s2,%hi(humidity)
	.loc 3 65 10
	lui	s3,%hi(temp)
	lui	s4,%hi(.LC17)
	lui	s5,%hi(.LC18)
	.loc 3 88 7
	lui	s6,%hi(.LC16)
	.loc 3 76 9
	lui	s7,%hi(.LC15)
.L39:
.LBE30:
	.loc 3 34 3 is_stmt 1
.LBB31:
	.loc 3 36 5
	call	initiateGPIO
.LVL65:
	.loc 3 37 5
	.loc 3 37 13 is_stmt 0
	sw	zero,8(sp)
	sb	zero,12(sp)
	.loc 3 38 5 is_stmt 1
	call	sendStartSignal
.LVL66:
	.loc 3 40 5
	li	a2,0
	li	a1,0
	li	a0,5
	call	bl_gpio_enable_input
.LVL67:
	.loc 3 42 5
.L28:
	.loc 3 43 7 discriminator 1
	.loc 3 42 12 is_stmt 0 discriminator 1
	li	a0,5
	call	bl_gpio_input_get_value
.LVL68:
	.loc 3 42 11 discriminator 1
	beq	a0,s1,.L28
.L29:
	.loc 3 45 7 is_stmt 1 discriminator 1
	.loc 3 44 12 is_stmt 0 discriminator 1
	li	a0,5
	call	bl_gpio_input_get_value
.LVL69:
	.loc 3 44 11 discriminator 1
	beq	a0,zero,.L29
.L30:
	.loc 3 47 7 is_stmt 1 discriminator 1
	.loc 3 46 12 is_stmt 0 discriminator 1
	li	a0,5
	call	bl_gpio_input_get_value
.LVL70:
	.loc 3 46 11 discriminator 1
	beq	a0,s1,.L30
.LBB29:
	.loc 3 49 14
	li	s8,0
	.loc 3 49 5
	li	s0,40
.L31:
	.loc 3 52 9 is_stmt 1 discriminator 1
	.loc 3 51 14 is_stmt 0 discriminator 1
	li	a0,5
	call	bl_gpio_input_get_value
.LVL71:
	.loc 3 51 13 discriminator 1
	beq	a0,zero,.L31
	.loc 3 54 7 is_stmt 1
	li	a0,30
	call	bl_timer_delay_us
.LVL72:
	.loc 3 56 7
	.loc 3 56 11 is_stmt 0
	li	a0,5
	call	bl_gpio_input_get_value
.LVL73:
	.loc 3 56 10
	beq	a0,zero,.L33
	.loc 3 58 9 is_stmt 1
	.loc 3 58 21 is_stmt 0
	addi	a5,sp,16
	.loc 3 58 16
	srai	a4,s8,3
	.loc 3 58 21
	add	a4,a5,a4
	lbu	a3,-8(a4)
	.loc 3 58 27
	not	a5,s8
	andi	a5,a5,7
	sll	a5,s1,a5
	.loc 3 58 21
	or	a5,a5,a3
	sb	a5,-8(a4)
.L33:
	.loc 3 62 9 is_stmt 1 discriminator 1
	.loc 3 61 14 is_stmt 0 discriminator 1
	li	a0,5
	call	bl_gpio_input_get_value
.LVL74:
	.loc 3 61 13 discriminator 1
	beq	a0,s1,.L33
	.loc 3 49 30 discriminator 2
	addi	s8,s8,1
.LVL75:
	.loc 3 49 5 discriminator 2
	bne	s8,s0,.L31
.LBE29:
	.loc 3 64 5 is_stmt 1
	.loc 3 64 21 is_stmt 0
	lbu	a2,8(sp)
	.loc 3 64 36
	lbu	a5,9(sp)
	.loc 3 65 17
	lbu	a3,10(sp)
	.loc 3 64 25
	slli	a4,a2,8
	.loc 3 64 30
	or	a4,a4,a5
	.loc 3 64 14
	sh	a4,%lo(humidity)(s2)
	.loc 3 65 5 is_stmt 1
	.loc 3 65 32 is_stmt 0
	lbu	a4,11(sp)
	.loc 3 65 21
	slli	a1,a3,8
	.loc 3 70 18
	add	a5,a5,a2
	.loc 3 65 26
	or	a1,a1,a4
	.loc 3 70 28
	add	a5,a5,a3
	.loc 3 65 26
	slli	a1,a1,16
	.loc 3 70 38
	add	a5,a5,a4
	.loc 3 70 49
	lbu	a4,12(sp)
	.loc 3 65 26
	srai	a1,a1,16
	.loc 3 65 10
	sh	a1,%lo(temp)(s3)
	.loc 3 66 5 is_stmt 1
.LVL76:
	.loc 3 70 5
	.loc 3 70 8 is_stmt 0
	bne	a5,a4,.L35
	.loc 3 73 7 is_stmt 1
	.loc 3 73 10 is_stmt 0
	bge	a1,zero,.L36
	.loc 3 75 9 is_stmt 1
	.loc 3 75 14 is_stmt 0
	neg	a1,a1
	slli	s0,a1,16
	srai	s0,s0,16
	.loc 3 76 9
	li	s8,10
.LVL77:
	rem	a0,s0,s8
	.loc 3 75 14
	sh	s0,%lo(temp)(s3)
	.loc 3 76 9 is_stmt 1
	call	abs
.LVL78:
	div	a1,s0,s8
	mv	a2,a0
	addi	a0,s7,%lo(.LC15)
.L52:
	.loc 3 80 9 is_stmt 0
	call	printf
.LVL79:
	.loc 3 83 7 is_stmt 1
	lhu	a1,%lo(humidity)(s2)
	li	a5,10
	remu	a2,a1,a5
	divu	a1,a1,a5
.L53:
	.loc 3 89 7 is_stmt 0
	addi	a0,s4,%lo(.LC17)
	call	printf
.LVL80:
	.loc 3 90 7 is_stmt 1
	addi	a0,s5,%lo(.LC18)
	call	printf
.LVL81:
	.loc 3 93 5
	li	a0,8192
	addi	a0,a0,1808
	call	vTaskDelay
.LVL82:
.LBE31:
	.loc 3 35 3 is_stmt 0
	j	.L39
.LVL83:
.L36:
.LBB32:
	.loc 3 80 9 is_stmt 1
	li	a5,10
	rem	a2,a1,a5
	addi	a0,s6,%lo(.LC16)
	div	a1,a1,a5
	j	.L52
.L35:
	.loc 3 88 7
	li	s0,10
	rem	a2,a1,s0
	addi	a0,s6,%lo(.LC16)
	div	a1,a1,s0
	call	printf
.LVL84:
	.loc 3 89 7
	lhu	a1,%lo(humidity)(s2)
	remu	a2,a1,s0
	divu	a1,a1,s0
	j	.L53
.LBE32:
	.cfi_endproc
.LFE34:
	.size	task_dht, .-task_dht
	.section	.text.bfl_main,"ax",@progbits
	.align	1
	.globl	bfl_main
	.type	bfl_main, @function
bfl_main:
.LFB35:
	.file 4 "/home/parag/bl_iot_sdk/customer_app/SWEMS/SWEMS/main.c"
	.loc 4 35 1
	.cfi_startproc
	.loc 4 40 5
	li	a5,1998848
	.loc 4 35 1 is_stmt 0
	addi	sp,sp,-16
	.cfi_def_cfa_offset 16
	.loc 4 40 5
	addi	a5,a5,1152
	li	a4,255
	li	a3,255
	li	a2,7
	li	a1,16
	li	a0,0
	.loc 4 35 1
	sw	ra,12(sp)
	.cfi_offset 1, -4
	.loc 4 40 5
	call	bl_uart_init
.LVL85:
	.loc 4 43 5 is_stmt 1
	lui	a0,%hi(.LANCHOR1)
	addi	a0,a0,%lo(.LANCHOR1)
	call	vPortDefineHeapRegions
.LVL86:
	.loc 4 46 5
	call	bl_dma_init
.LVL87:
	.loc 4 49 5
	.loc 4 50 5
	.loc 4 52 5
	.loc 4 53 5
	.loc 4 56 5
	.loc 4 57 5
	.loc 4 59 5
	lui	a6,%hi(.LANCHOR2)
	lui	a5,%hi(mq4_stack.5257)
	lui	a1,%hi(.LC19)
	lui	a0,%hi(task_mq4)
	addi	a6,a6,%lo(.LANCHOR2)
	addi	a5,a5,%lo(mq4_stack.5257)
	li	a4,15
	li	a3,0
	li	a2,512
	addi	a1,a1,%lo(.LC19)
	addi	a0,a0,%lo(task_mq4)
	call	xTaskCreateStatic
.LVL88:
	.loc 4 68 5
	lui	a6,%hi(.LANCHOR3)
	lui	a5,%hi(.LANCHOR4)
	lui	a1,%hi(.LC20)
	lui	a0,%hi(task_buzzer)
	addi	a6,a6,%lo(.LANCHOR3)
	addi	a5,a5,%lo(.LANCHOR4)
	li	a4,10
	li	a3,0
	li	a2,128
	addi	a1,a1,%lo(.LC20)
	addi	a0,a0,%lo(task_buzzer)
	call	xTaskCreateStatic
.LVL89:
	.loc 4 76 5
	lui	a6,%hi(.LANCHOR5)
	lui	a5,%hi(dht_stack.5261)
	lui	a1,%hi(.LC21)
	lui	a0,%hi(task_dht)
	addi	a6,a6,%lo(.LANCHOR5)
	addi	a5,a5,%lo(dht_stack.5261)
	li	a4,30
	li	a3,0
	li	a2,768
	addi	a1,a1,%lo(.LC21)
	addi	a0,a0,%lo(task_dht)
	call	xTaskCreateStatic
.LVL90:
	.loc 4 87 5
	.loc 4 88 1 is_stmt 0
	lw	ra,12(sp)
	.cfi_restore 1
	addi	sp,sp,16
	.cfi_def_cfa_offset 0
	.loc 4 87 5
	tail	vTaskStartScheduler
.LVL91:
	.cfi_endproc
.LFE35:
	.size	bfl_main, .-bfl_main
	.globl	buzz
	.comm	temp,2,2
	.comm	humidity,2,2
	.globl	ppm
	.globl	sensor_volt
	.section	.bss.adc_data.4352,"aw",@nobits
	.align	2
	.type	adc_data.4352, @object
	.size	adc_data.4352, 4096
adc_data.4352:
	.zero	4096
	.section	.bss.buzzer_stack.5259,"aw",@nobits
	.align	2
	.set	.LANCHOR4,. + 0
	.type	buzzer_stack.5259, @object
	.size	buzzer_stack.5259, 512
buzzer_stack.5259:
	.zero	512
	.section	.bss.buzzer_task.5260,"aw",@nobits
	.align	2
	.set	.LANCHOR3,. + 0
	.type	buzzer_task.5260, @object
	.size	buzzer_task.5260, 96
buzzer_task.5260:
	.zero	96
	.section	.bss.dht_stack.5261,"aw",@nobits
	.align	2
	.type	dht_stack.5261, @object
	.size	dht_stack.5261, 3072
dht_stack.5261:
	.zero	3072
	.section	.bss.dht_task.5262,"aw",@nobits
	.align	2
	.set	.LANCHOR5,. + 0
	.type	dht_task.5262, @object
	.size	dht_task.5262, 96
dht_task.5262:
	.zero	96
	.section	.bss.mq4_stack.5257,"aw",@nobits
	.align	2
	.type	mq4_stack.5257, @object
	.size	mq4_stack.5257, 2048
mq4_stack.5257:
	.zero	2048
	.section	.bss.mq4_task.5258,"aw",@nobits
	.align	2
	.set	.LANCHOR2,. + 0
	.type	mq4_task.5258, @object
	.size	mq4_task.5258, 96
mq4_task.5258:
	.zero	96
	.section	.data.xHeapRegions,"aw"
	.align	2
	.set	.LANCHOR1,. + 0
	.type	xHeapRegions, @object
	.size	xHeapRegions, 32
xHeapRegions:
	.word	_heap_start
	.word	_heap_size
	.word	_heap_wifi_start
	.word	_heap_wifi_size
	.word	0
	.word	0
	.word	0
	.word	0
	.section	.rodata.bfl_main.str1.4,"aMS",@progbits,1
	.align	2
.LC19:
	.string	"mq4"
.LC20:
	.string	"buzzer"
	.zero	1
.LC21:
	.string	"dht"
	.section	.rodata.init_adc.str1.4,"aMS",@progbits,1
	.align	2
.LC1:
	.string	"Invalid pin selected for ADC\r\n"
	.section	.rodata.task_buzzer.cst8,"aM",@progbits,8
	.align	3
.LC0:
	.word	0
	.word	1081262080
	.section	.rodata.task_dht.str1.4,"aMS",@progbits,1
	.align	2
.LC14:
	.string	"DHT22 task started\r\n"
	.zero	3
.LC15:
	.string	"\033[31mTemperature: %d.%d *C\r\n"
	.zero	3
.LC16:
	.string	"\033[36mTemperature: %d.%d *C\r\n"
	.zero	3
.LC17:
	.string	"\033[33mHumidity: %d.%d \r\n"
.LC18:
	.string	"\033[0m"
	.section	.rodata.task_mq4.cst8,"aM",@progbits,8
	.align	3
.LC4:
	.word	0
	.word	1082081280
.LC5:
	.word	1078989829
	.word	1064568065
.LC6:
	.word	0
	.word	1075052544
.LC7:
	.word	0
	.word	1072693248
.LC8:
	.word	2576980378
	.word	1076337049
.LC9:
	.word	2611340116
	.word	1072832708
.LC10:
	.word	2886218023
	.word	-1076602340
.LC11:
	.word	0
	.word	1076101120
.LC12:
	.word	0
	.word	1080623104
	.section	.rodata.task_mq4.str1.4,"aMS",@progbits,1
	.align	2
.LC2:
	.string	"MQ4 task started\r\n"
	.zero	1
.LC3:
	.string	"MQ4 Sensor initialized\r\n"
	.zero	3
.LC13:
	.string	"\033[35mGas ppm = %f\r\n"
	.section	.sbss.buzz,"aw",@nobits
	.align	2
	.type	buzz, @object
	.size	buzz, 4
buzz:
	.zero	4
	.section	.sbss.sensor_volt,"aw",@nobits
	.align	3
	.type	sensor_volt, @object
	.size	sensor_volt, 8
sensor_volt:
	.zero	8
	.section	.sdata.ppm,"aw"
	.align	3
	.set	.LANCHOR0,. + 0
	.type	ppm, @object
	.size	ppm, 8
ppm:
	.word	0
	.word	1072693248
	.text
.Letext0:
	.file 5 "/home/parag/bl_iot_sdk/toolchain/riscv/Linux/lib/gcc/riscv64-unknown-elf/8.3.0/include/stddef.h"
	.file 6 "/home/parag/bl_iot_sdk/toolchain/riscv/Linux/lib/gcc/riscv64-unknown-elf/8.3.0/include/stdint-gcc.h"
	.file 7 "/home/parag/bl_iot_sdk/components/bl602/freertos_riscv_ram/portable/GCC/RISC-V/portmacro.h"
	.file 8 "/home/parag/bl_iot_sdk/components/bl602/freertos_riscv_ram/config/portable.h"
	.file 9 "/home/parag/bl_iot_sdk/components/bl602/freertos_riscv_ram/config/FreeRTOS.h"
	.file 10 "/home/parag/bl_iot_sdk/toolchain/riscv/Linux/riscv64-unknown-elf/include/sys/_types.h"
	.file 11 "/home/parag/bl_iot_sdk/toolchain/riscv/Linux/riscv64-unknown-elf/include/sys/reent.h"
	.file 12 "/home/parag/bl_iot_sdk/toolchain/riscv/Linux/riscv64-unknown-elf/include/sys/lock.h"
	.file 13 "/home/parag/bl_iot_sdk/toolchain/riscv/Linux/riscv64-unknown-elf/include/math.h"
	.file 14 "/home/parag/bl_iot_sdk/components/bl602/bl602_std/bl602_std/RISCV/Device/Bouffalo/BL602/Startup/system_bl602.h"
	.file 15 "/home/parag/bl_iot_sdk/components/bl602/bl602_std/bl602_std/StdDriver/Inc/bl602_common.h"
	.file 16 "/home/parag/bl_iot_sdk/components/hal_drv/bl602_hal/bl_adc.h"
	.file 17 "/home/parag/bl_iot_sdk/toolchain/riscv/Linux/riscv64-unknown-elf/include/stdlib.h"
	.file 18 "/home/parag/bl_iot_sdk/components/hal_drv/bl602_hal/bl_uart.h"
	.file 19 "/home/parag/bl_iot_sdk/components/hal_drv/bl602_hal/bl_dma.h"
	.file 20 "/home/parag/bl_iot_sdk/components/bl602/freertos_riscv_ram/config/task.h"
	.file 21 "/home/parag/bl_iot_sdk/components/hal_drv/bl602_hal/bl_gpio.h"
	.file 22 "/home/parag/bl_iot_sdk/components/hal_drv/bl602_hal/bl_timer.h"
	.file 23 "/home/parag/bl_iot_sdk/toolchain/riscv/Linux/riscv64-unknown-elf/include/stdio.h"
	.file 24 "/home/parag/bl_iot_sdk/toolchain/riscv/Linux/riscv64-unknown-elf/include/string.h"
	.file 25 "/home/parag/bl_iot_sdk/components/bl602/bl602_std/bl602_std/StdDriver/Inc/bl602_adc.h"