Archive member included to satisfy reference by file (symbol)

/home/parag/bl_iot_sdk/customer_app/SWEMS/build_out/bl602/libbl602.a(start.o)
                              (bl602_start)
/home/parag/bl_iot_sdk/customer_app/SWEMS/build_out/hal_drv/libhal_drv.a(hal_boot2.o)
                              /home/parag/bl_iot_sdk/customer_app/SWEMS/build_out/bl602/libbl602.a(start.o) (hal_boot2_get_flash_addr)
/home/parag/bl_iot_sdk/customer_app/SWEMS/build_out/hal_drv/libhal_drv.a(bl_boot2.o)
                              /home/parag/bl_iot_sdk/customer_app/SWEMS/build_out/hal_drv/libhal_drv.a(hal_boot2.o) (PtTable_Update_Entry)
/home/parag/bl_iot_sdk/customer_app/SWEMS/build_out/hal_drv/libhal_drv.a(bl_flash.o)
                              /home/parag/bl_iot_sdk/customer_app/SWEMS/build_out/hal_drv/libhal_drv.a(bl_boot2.o) (bl_flash_erase)
/home/parag/bl_iot_sdk/customer_app/SWEMS/build_out/SWEMS/libSWEMS.a(main.o)
                              /home/parag/bl_iot_sdk/customer_app/SWEMS/build_out/bl602/libbl602.a(start.o) (bfl_main)
/home/parag/bl_iot_sdk/customer_app/SWEMS/build_out/SWEMS/libSWEMS.a(buzzer.o)
                              /home/parag/bl_iot_sdk/customer_app/SWEMS/build_out/SWEMS/libSWEMS.a(main.o) (task_buzzer)
/home/parag/bl_iot_sdk/customer_app/SWEMS/build_out/bl602_std/libbl602_std.a(softcrc.o)
                              /home/parag/bl_iot_sdk/customer_app/SWEMS/build_out/hal_drv/libhal_drv.a(bl_boot2.o) (BFLB_Soft_CRC32)
/home/parag/bl_iot_sdk/customer_app/SWEMS/build_out/freertos_riscv_ram/libfreertos_riscv_ram.a(tasks.o)
                              /home/parag/bl_iot_sdk/customer_app/SWEMS/build_out/SWEMS/libSWEMS.a(main.o) (xTaskCreateStatic)
/home/parag/bl_iot_sdk/customer_app/SWEMS/build_out/freertos_riscv_ram/libfreertos_riscv_ram.a(timers.o)
                              /home/parag/bl_iot_sdk/customer_app/SWEMS/build_out/freertos_riscv_ram/libfreertos_riscv_ram.a(tasks.o) (xTimerCreateTimerTask)
/home/parag/bl_iot_sdk/customer_app/SWEMS/build_out/freertos_riscv_ram/libfreertos_riscv_ram.a(port.o)
                              /home/parag/bl_iot_sdk/customer_app/SWEMS/build_out/freertos_riscv_ram/libfreertos_riscv_ram.a(tasks.o) (xPortStartScheduler)
/home/parag/bl_iot_sdk/customer_app/SWEMS/build_out/freertos_riscv_ram/libfreertos_riscv_ram.a(portASM.o)
                              /home/parag/bl_iot_sdk/customer_app/SWEMS/build_out/freertos_riscv_ram/libfreertos_riscv_ram.a(port.o) (xPortStartFirstTask)
/home/parag/bl_iot_sdk/customer_app/SWEMS/build_out/freertos_riscv_ram/libfreertos_riscv_ram.a(heap_5.o)
                              /home/parag/bl_iot_sdk/customer_app/SWEMS/build_out/freertos_riscv_ram/libfreertos_riscv_ram.a(tasks.o) (pvPortMalloc)
/home/parag/bl_iot_sdk/customer_app/SWEMS/build_out/freertos_riscv_ram/libfreertos_riscv_ram.a(list.o)
                              /home/parag/bl_iot_sdk/customer_app/SWEMS/build_out/freertos_riscv_ram/libfreertos_riscv_ram.a(tasks.o) (vListInitialise)
/home/parag/bl_iot_sdk/customer_app/SWEMS/build_out/freertos_riscv_ram/libfreertos_riscv_ram.a(queue.o)
                              /home/parag/bl_iot_sdk/customer_app/SWEMS/build_out/freertos_riscv_ram/libfreertos_riscv_ram.a(timers.o) (xQueueGenericCreateStatic)
/home/parag/bl_iot_sdk/customer_app/SWEMS/build_out/hal_drv/libhal_drv.a(bl_irq.o)
                              /home/parag/bl_iot_sdk/customer_app/SWEMS/build_out/freertos_riscv_ram/libfreertos_riscv_ram.a(portASM.o) (interrupt_entry)
/home/parag/bl_iot_sdk/customer_app/SWEMS/build_out/hal_drv/libhal_drv.a(bl_gpio.o)
                              /home/parag/bl_iot_sdk/customer_app/SWEMS/build_out/SWEMS/libSWEMS.a(buzzer.o) (bl_gpio_enable_output)
/home/parag/bl_iot_sdk/customer_app/SWEMS/build_out/SWEMS/libSWEMS.a(freertos.o)
                              /home/parag/bl_iot_sdk/customer_app/SWEMS/build_out/freertos_riscv_ram/libfreertos_riscv_ram.a(tasks.o) (vAssertCalled)
/home/parag/bl_iot_sdk/customer_app/SWEMS/build_out/bl602/libbl602.a(debug.o)
                              /home/parag/bl_iot_sdk/customer_app/SWEMS/build_out/hal_drv/libhal_drv.a(bl_irq.o) (puts)
/home/parag/bl_iot_sdk/customer_app/SWEMS/build_out/bl602_std/libbl602_std.a(bl602_glb.o)
                              /home/parag/bl_iot_sdk/customer_app/SWEMS/build_out/hal_drv/libhal_drv.a(bl_gpio.o) (GLB_GPIO_Init)
/home/parag/bl_iot_sdk/customer_app/SWEMS/build_out/bl602_std/libbl602_std.a(bl602_hbn.o)
                              /home/parag/bl_iot_sdk/customer_app/SWEMS/build_out/bl602_std/libbl602_std.a(bl602_glb.o) (HBN_Set_UART_CLK_Sel)
/home/parag/bl_iot_sdk/customer_app/SWEMS/build_out/bl602_std/libbl602_std.a(bl602_aon.o)
                              /home/parag/bl_iot_sdk/customer_app/SWEMS/build_out/bl602_std/libbl602_std.a(bl602_glb.o) (AON_Power_On_XTAL)
/home/parag/bl_iot_sdk/customer_app/SWEMS/build_out/bl602_std/libbl602_std.a(bl602_pds.o)
                              /home/parag/bl_iot_sdk/customer_app/SWEMS/build_out/bl602_std/libbl602_std.a(bl602_glb.o) (PDS_Enable_PLL_All_Clks)
/home/parag/bl_iot_sdk/customer_app/SWEMS/build_out/bl602_std/libbl602_std.a(bl602_l1c.o)
                              /home/parag/bl_iot_sdk/customer_app/SWEMS/build_out/bl602_std/libbl602_std.a(bl602_glb.o) (L1C_IROM_2T_Access_Set)
/home/parag/bl_iot_sdk/customer_app/SWEMS/build_out/bl602_std/libbl602_std.a(bl602_ef_ctrl.o)
                              /home/parag/bl_iot_sdk/customer_app/SWEMS/build_out/bl602_std/libbl602_std.a(bl602_hbn.o) (EF_Ctrl_Get_Trim_Parity)
/home/parag/bl_iot_sdk/customer_app/SWEMS/build_out/bl602_std/libbl602_std.a(bl602_romapi.o)
                              /home/parag/bl_iot_sdk/customer_app/SWEMS/build_out/bl602_std/libbl602_std.a(bl602_glb.o) (BL602_Delay_US)
/home/parag/bl_iot_sdk/customer_app/SWEMS/build_out/bltime/libbltime.a(bl_sys_time.o)
                              /home/parag/bl_iot_sdk/customer_app/SWEMS/build_out/freertos_riscv_ram/libfreertos_riscv_ram.a(tasks.o) (bl_sys_time_sync_state)
/home/parag/bl_iot_sdk/customer_app/SWEMS/build_out/freertos_riscv_ram/libfreertos_riscv_ram.a(misaligned_ldst.o)
                              /home/parag/bl_iot_sdk/customer_app/SWEMS/build_out/hal_drv/libhal_drv.a(bl_irq.o) (misaligned_load_trap)
/home/parag/bl_iot_sdk/customer_app/SWEMS/build_out/freertos_riscv_ram/libfreertos_riscv_ram.a(fp_asm.o)
                              /home/parag/bl_iot_sdk/customer_app/SWEMS/build_out/freertos_riscv_ram/libfreertos_riscv_ram.a(misaligned_ldst.o) (get_f32_reg)
/home/parag/bl_iot_sdk/customer_app/SWEMS/build_out/freertos_riscv_ram/libfreertos_riscv_ram.a(panic_c.o)
                              /home/parag/bl_iot_sdk/customer_app/SWEMS/build_out/hal_drv/libhal_drv.a(bl_irq.o) (backtrace_now)
/home/parag/bl_iot_sdk/customer_app/SWEMS/build_out/hal_drv/libhal_drv.a(bl_uart.o)
                              /home/parag/bl_iot_sdk/customer_app/SWEMS/build_out/bl602/libbl602.a(debug.o) (bl_uart_data_send)
/home/parag/bl_iot_sdk/customer_app/SWEMS/build_out/hal_drv/libhal_drv.a(bl_sys.o)
                              /home/parag/bl_iot_sdk/customer_app/SWEMS/build_out/bl602/libbl602.a(debug.o) (sys_log_all_enable)
/home/parag/bl_iot_sdk/customer_app/SWEMS/build_out/hal_drv/libhal_drv.a(bl_rtc.o)
                              /home/parag/bl_iot_sdk/customer_app/SWEMS/build_out/bltime/libbltime.a(bl_sys_time.o) (bl_rtc_get_timestamp_ms)
/home/parag/bl_iot_sdk/customer_app/SWEMS/build_out/bl602_std/libbl602_std.a(bl602_uart.o)
                              /home/parag/bl_iot_sdk/customer_app/SWEMS/build_out/hal_drv/libhal_drv.a(bl_uart.o) (UART_Init)
/home/parag/bl_iot_sdk/toolchain/riscv/Linux/bin/../lib/gcc/riscv64-unknown-elf/8.3.0/../../../../riscv64-unknown-elf/lib/rv32imf/ilp32f/libm.a(lib_a-s_modf.o)
                              /home/parag/bl_iot_sdk/customer_app/SWEMS/build_out/bl602/libbl602.a(debug.o) (modf)
/home/parag/bl_iot_sdk/toolchain/riscv/Linux/bin/../lib/gcc/riscv64-unknown-elf/8.3.0/rv32imf/ilp32f/libgcc.a(_lshrdi3.o)
                              /home/parag/bl_iot_sdk/customer_app/SWEMS/build_out/bl602_std/libbl602_std.a(bl602_ef_ctrl.o) (__lshrdi3)
/home/parag/bl_iot_sdk/toolchain/riscv/Linux/bin/../lib/gcc/riscv64-unknown-elf/8.3.0/rv32imf/ilp32f/libgcc.a(_ashldi3.o)
                              /home/parag/bl_iot_sdk/customer_app/SWEMS/build_out/bl602_std/libbl602_std.a(bl602_ef_ctrl.o) (__ashldi3)
/home/parag/bl_iot_sdk/toolchain/riscv/Linux/bin/../lib/gcc/riscv64-unknown-elf/8.3.0/rv32imf/ilp32f/libgcc.a(_clzsi2.o)
                              /home/parag/bl_iot_sdk/customer_app/SWEMS/build_out/freertos_riscv_ram/libfreertos_riscv_ram.a(tasks.o) (__clzsi2)
/home/parag/bl_iot_sdk/toolchain/riscv/Linux/bin/../lib/gcc/riscv64-unknown-elf/8.3.0/rv32imf/ilp32f/libgcc.a(_udivdi3.o)
                              /home/parag/bl_iot_sdk/customer_app/SWEMS/build_out/bl602/libbl602.a(debug.o) (__udivdi3)
/home/parag/bl_iot_sdk/toolchain/riscv/Linux/bin/../lib/gcc/riscv64-unknown-elf/8.3.0/rv32imf/ilp32f/libgcc.a(_umoddi3.o)
                              /home/parag/bl_iot_sdk/customer_app/SWEMS/build_out/bl602/libbl602.a(debug.o) (__umoddi3)
/home/parag/bl_iot_sdk/toolchain/riscv/Linux/bin/../lib/gcc/riscv64-unknown-elf/8.3.0/rv32imf/ilp32f/libgcc.a(adddf3.o)
                              /home/parag/bl_iot_sdk/customer_app/SWEMS/build_out/bl602/libbl602.a(debug.o) (__adddf3)
/home/parag/bl_iot_sdk/toolchain/riscv/Linux/bin/../lib/gcc/riscv64-unknown-elf/8.3.0/rv32imf/ilp32f/libgcc.a(divdf3.o)
                              /home/parag/bl_iot_sdk/customer_app/SWEMS/build_out/bl602/libbl602.a(debug.o) (__divdf3)
/home/parag/bl_iot_sdk/toolchain/riscv/Linux/bin/../lib/gcc/riscv64-unknown-elf/8.3.0/rv32imf/ilp32f/libgcc.a(eqdf2.o)
                              /home/parag/bl_iot_sdk/customer_app/SWEMS/build_out/bl602/libbl602.a(debug.o) (__eqdf2)
/home/parag/bl_iot_sdk/toolchain/riscv/Linux/bin/../lib/gcc/riscv64-unknown-elf/8.3.0/rv32imf/ilp32f/libgcc.a(gedf2.o)
                              /home/parag/bl_iot_sdk/customer_app/SWEMS/build_out/bl602/libbl602.a(debug.o) (__gtdf2)
/home/parag/bl_iot_sdk/toolchain/riscv/Linux/bin/../lib/gcc/riscv64-unknown-elf/8.3.0/rv32imf/ilp32f/libgcc.a(ledf2.o)
                              /home/parag/bl_iot_sdk/customer_app/SWEMS/build_out/bl602/libbl602.a(debug.o) (__ltdf2)
/home/parag/bl_iot_sdk/toolchain/riscv/Linux/bin/../lib/gcc/riscv64-unknown-elf/8.3.0/rv32imf/ilp32f/libgcc.a(muldf3.o)
                              /home/parag/bl_iot_sdk/customer_app/SWEMS/build_out/bl602/libbl602.a(debug.o) (__muldf3)
/home/parag/bl_iot_sdk/toolchain/riscv/Linux/bin/../lib/gcc/riscv64-unknown-elf/8.3.0/rv32imf/ilp32f/libgcc.a(subdf3.o)
                              /home/parag/bl_iot_sdk/toolchain/riscv/Linux/bin/../lib/gcc/riscv64-unknown-elf/8.3.0/../../../../riscv64-unknown-elf/lib/rv32imf/ilp32f/libm.a(lib_a-s_modf.o) (__subdf3)
/home/parag/bl_iot_sdk/toolchain/riscv/Linux/bin/../lib/gcc/riscv64-unknown-elf/8.3.0/rv32imf/ilp32f/libgcc.a(fixdfsi.o)
                              /home/parag/bl_iot_sdk/customer_app/SWEMS/build_out/bl602/libbl602.a(debug.o) (__fixdfsi)
/home/parag/bl_iot_sdk/toolchain/riscv/Linux/bin/../lib/gcc/riscv64-unknown-elf/8.3.0/rv32imf/ilp32f/libgcc.a(_clz.o)
                              /home/parag/bl_iot_sdk/toolchain/riscv/Linux/bin/../lib/gcc/riscv64-unknown-elf/8.3.0/rv32imf/ilp32f/libgcc.a(_clzsi2.o) (__clz_tab)
/home/parag/bl_iot_sdk/toolchain/riscv/Linux/bin/../lib/gcc/riscv64-unknown-elf/8.3.0/../../../../riscv64-unknown-elf/lib/rv32imf/ilp32f/libc.a(lib_a-memcpy.o)
                              /home/parag/bl_iot_sdk/customer_app/SWEMS/build_out/hal_drv/libhal_drv.a(bl_boot2.o) (memcpy)
/home/parag/bl_iot_sdk/toolchain/riscv/Linux/bin/../lib/gcc/riscv64-unknown-elf/8.3.0/../../../../riscv64-unknown-elf/lib/rv32imf/ilp32f/libc.a(lib_a-memset.o)
                              /home/parag/bl_iot_sdk/customer_app/SWEMS/build_out/freertos_riscv_ram/libfreertos_riscv_ram.a(tasks.o) (memset)
/home/parag/bl_iot_sdk/toolchain/riscv/Linux/bin/../lib/gcc/riscv64-unknown-elf/8.3.0/../../../../riscv64-unknown-elf/lib/rv32imf/ilp32f/libc.a(lib_a-strcmp.o)
                              /home/parag/bl_iot_sdk/customer_app/SWEMS/build_out/hal_drv/libhal_drv.a(hal_boot2.o) (strcmp)
/home/parag/bl_iot_sdk/toolchain/riscv/Linux/bin/../lib/gcc/riscv64-unknown-elf/8.3.0/../../../../riscv64-unknown-elf/lib/rv32imf/ilp32f/libc.a(lib_a-strcpy.o)
                              /home/parag/bl_iot_sdk/customer_app/SWEMS/build_out/freertos_riscv_ram/libfreertos_riscv_ram.a(tasks.o) (strcpy)
/home/parag/bl_iot_sdk/toolchain/riscv/Linux/bin/../lib/gcc/riscv64-unknown-elf/8.3.0/../../../../riscv64-unknown-elf/lib/rv32imf/ilp32f/libc.a(lib_a-strlen.o)
                              /home/parag/bl_iot_sdk/customer_app/SWEMS/build_out/freertos_riscv_ram/libfreertos_riscv_ram.a(tasks.o) (strlen)
/home/parag/bl_iot_sdk/toolchain/riscv/Linux/bin/../lib/gcc/riscv64-unknown-elf/8.3.0/../../../../riscv64-unknown-elf/lib/rv32imf/ilp32f/libc.a(lib_a-strnlen.o)
                              /home/parag/bl_iot_sdk/customer_app/SWEMS/build_out/bl602/libbl602.a(debug.o) (strnlen)

Allocating common symbols
Common symbol       size              file

xQueueRegistry      0x40              /home/parag/bl_iot_sdk/customer_app/SWEMS/build_out/freertos_riscv_ram/libfreertos_riscv_ram.a(queue.o)

Discarded input sections

 .text          0x0000000000000000        0x0 /home/parag/bl_iot_sdk/customer_app/SWEMS/build_out/bl602/libbl602.a(start.o)
 .data          0x0000000000000000        0x0 /home/parag/bl_iot_sdk/customer_app/SWEMS/build_out/bl602/libbl602.a(start.o)
 .bss           0x0000000000000000        0x0 /home/parag/bl_iot_sdk/customer_app/SWEMS/build_out/bl602/libbl602.a(start.o)
 .eh_frame      0x0000000000000000       0x2c /home/parag/bl_iot_sdk/customer_app/SWEMS/build_out/bl602/libbl602.a(start.o)
 .text          0x0000000000000000        0x0 /home/parag/bl_iot_sdk/customer_app/SWEMS/build_out/hal_drv/libhal_drv.a(hal_boot2.o)
 .data          0x0000000000000000        0x0 /home/parag/bl_iot_sdk/customer_app/SWEMS/build_out/hal_drv/libhal_drv.a(hal_boot2.o)
 .bss           0x0000000000000000        0x0 /home/parag/bl_iot_sdk/customer_app/SWEMS/build_out/hal_drv/libhal_drv.a(hal_boot2.o)
 .text.hal_boot2_set_ptable_opt
                0x0000000000000000        0x8 /home/parag/bl_iot_sdk/customer_app/SWEMS/build_out/hal_drv/libhal_drv.a(hal_boot2.o)
 .text.hal_boot2_update_ptable
                0x0000000000000000       0x3a /home/parag/bl_iot_sdk/customer_app/SWEMS/build_out/hal_drv/libhal_drv.a(hal_boot2.o)
 .text.hal_boot2_partition_bus_addr
                0x0000000000000000      0x17c /home/parag/bl_iot_sdk/customer_app/SWEMS/build_out/hal_drv/libhal_drv.a(hal_boot2.o)
 .text.hal_boot2_partition_bus_addr_active
                0x0000000000000000       0x40 /home/parag/bl_iot_sdk/customer_app/SWEMS/build_out/hal_drv/libhal_drv.a(hal_boot2.o)
 .text.hal_boot2_partition_bus_addr_inactive
                0x0000000000000000       0x40 /home/parag/bl_iot_sdk/customer_app/SWEMS/build_out/hal_drv/libhal_drv.a(hal_boot2.o)
 .text.hal_boot2_partition_addr
                0x0000000000000000       0xc0 /home/parag/bl_iot_sdk/customer_app/SWEMS/build_out/hal_drv/libhal_drv.a(hal_boot2.o)
 .text.hal_boot2_partition_addr_active
                0x0000000000000000       0x40 /home/parag/bl_iot_sdk/customer_app/SWEMS/build_out/hal_drv/libhal_drv.a(hal_boot2.o)
 .text.hal_boot2_partition_addr_inactive
                0x0000000000000000       0x40 /home/parag/bl_iot_sdk/customer_app/SWEMS/build_out/hal_drv/libhal_drv.a(hal_boot2.o)
 .text.hal_boot2_get_active_partition
                0x0000000000000000        0xa /home/parag/bl_iot_sdk/customer_app/SWEMS/build_out/hal_drv/libhal_drv.a(hal_boot2.o)
 .text.hal_boot2_get_active_entries
                0x0000000000000000       0x28 /home/parag/bl_iot_sdk/customer_app/SWEMS/build_out/hal_drv/libhal_drv.a(hal_boot2.o)
 .text.hal_boot2_dump
                0x0000000000000000        0x4 /home/parag/bl_iot_sdk/customer_app/SWEMS/build_out/hal_drv/libhal_drv.a(hal_boot2.o)
 .text.hal_boot2_init
                0x0000000000000000       0x24 /home/parag/bl_iot_sdk/customer_app/SWEMS/build_out/hal_drv/libhal_drv.a(hal_boot2.o)
 .rodata.hal_boot2_partition_bus_addr.str1.4
                0x0000000000000000        0x3 /home/parag/bl_iot_sdk/customer_app/SWEMS/build_out/hal_drv/libhal_drv.a(hal_boot2.o)
 .text          0x0000000000000000        0x0 /home/parag/bl_iot_sdk/customer_app/SWEMS/build_out/hal_drv/libhal_drv.a(bl_boot2.o)
 .data          0x0000000000000000        0x0 /home/parag/bl_iot_sdk/customer_app/SWEMS/build_out/hal_drv/libhal_drv.a(bl_boot2.o)
 .bss           0x0000000000000000        0x0 /home/parag/bl_iot_sdk/customer_app/SWEMS/build_out/hal_drv/libhal_drv.a(bl_boot2.o)
 .text.PtTable_Update_Entry
                0x0000000000000000       0xfc /home/parag/bl_iot_sdk/customer_app/SWEMS/build_out/hal_drv/libhal_drv.a(bl_boot2.o)
 .text.PtTable_Get_Active_Entries
                0x0000000000000000       0x58 /home/parag/bl_iot_sdk/customer_app/SWEMS/build_out/hal_drv/libhal_drv.a(bl_boot2.o)
 .debug_info    0x0000000000000000     0x118e /home/parag/bl_iot_sdk/customer_app/SWEMS/build_out/hal_drv/libhal_drv.a(bl_boot2.o)
 .debug_abbrev  0x0000000000000000      0x26d /home/parag/bl_iot_sdk/customer_app/SWEMS/build_out/hal_drv/libhal_drv.a(bl_boot2.o)
 .debug_loc     0x0000000000000000      0x2df /home/parag/bl_iot_sdk/customer_app/SWEMS/build_out/hal_drv/libhal_drv.a(bl_boot2.o)
 .debug_aranges
                0x0000000000000000       0x28 /home/parag/bl_iot_sdk/customer_app/SWEMS/build_out/hal_drv/libhal_drv.a(bl_boot2.o)
 .debug_ranges  0x0000000000000000       0x18 /home/parag/bl_iot_sdk/customer_app/SWEMS/build_out/hal_drv/libhal_drv.a(bl_boot2.o)
 .debug_line    0x0000000000000000      0x645 /home/parag/bl_iot_sdk/customer_app/SWEMS/build_out/hal_drv/libhal_drv.a(bl_boot2.o)
 .debug_str     0x0000000000000000      0xc49 /home/parag/bl_iot_sdk/customer_app/SWEMS/build_out/hal_drv/libhal_drv.a(bl_boot2.o)
 .comment       0x0000000000000000       0x29 /home/parag/bl_iot_sdk/customer_app/SWEMS/build_out/hal_drv/libhal_drv.a(bl_boot2.o)
 .debug_frame   0x0000000000000000       0x68 /home/parag/bl_iot_sdk/customer_app/SWEMS/build_out/hal_drv/libhal_drv.a(bl_boot2.o)
 .riscv.attributes
                0x0000000000000000       0x2b /home/parag/bl_iot_sdk/customer_app/SWEMS/build_out/hal_drv/libhal_drv.a(bl_boot2.o)
 .text          0x0000000000000000        0x0 /home/parag/bl_iot_sdk/customer_app/SWEMS/build_out/hal_drv/libhal_drv.a(bl_flash.o)
 .data          0x0000000000000000        0x0 /home/parag/bl_iot_sdk/customer_app/SWEMS/build_out/hal_drv/libhal_drv.a(bl_flash.o)
 .bss           0x0000000000000000        0x0 /home/parag/bl_iot_sdk/customer_app/SWEMS/build_out/hal_drv/libhal_drv.a(bl_flash.o)
 .text.bl_flash_erase
                0x0000000000000000       0x30 /home/parag/bl_iot_sdk/customer_app/SWEMS/build_out/hal_drv/libhal_drv.a(bl_flash.o)
 .text.bl_flash_write
                0x0000000000000000       0x32 /home/parag/bl_iot_sdk/customer_app/SWEMS/build_out/hal_drv/libhal_drv.a(bl_flash.o)
 .text.bl_flash_read
                0x0000000000000000       0x32 /home/parag/bl_iot_sdk/customer_app/SWEMS/build_out/hal_drv/libhal_drv.a(bl_flash.o)
 .text.bl_flash_config_update
                0x0000000000000000        0x4 /home/parag/bl_iot_sdk/customer_app/SWEMS/build_out/hal_drv/libhal_drv.a(bl_flash.o)
 .text.bl_flash_get_flashCfg
                0x0000000000000000        0xa /home/parag/bl_iot_sdk/customer_app/SWEMS/build_out/hal_drv/libhal_drv.a(bl_flash.o)
 .text.bl_flash_read_byxip
                0x0000000000000000       0x4a /home/parag/bl_iot_sdk/customer_app/SWEMS/build_out/hal_drv/libhal_drv.a(bl_flash.o)
 .bss.boot2_flashCfg
                0x0000000000000000       0x58 /home/parag/bl_iot_sdk/customer_app/SWEMS/build_out/hal_drv/libhal_drv.a(bl_flash.o)
 .debug_info    0x0000000000000000     0x13e2 /home/parag/bl_iot_sdk/customer_app/SWEMS/build_out/hal_drv/libhal_drv.a(bl_flash.o)
 .debug_abbrev  0x0000000000000000      0x2bf /home/parag/bl_iot_sdk/customer_app/SWEMS/build_out/hal_drv/libhal_drv.a(bl_flash.o)
 .debug_loc     0x0000000000000000      0x295 /home/parag/bl_iot_sdk/customer_app/SWEMS/build_out/hal_drv/libhal_drv.a(bl_flash.o)
 .debug_aranges
                0x0000000000000000       0x48 /home/parag/bl_iot_sdk/customer_app/SWEMS/build_out/hal_drv/libhal_drv.a(bl_flash.o)
 .debug_ranges  0x0000000000000000       0x38 /home/parag/bl_iot_sdk/customer_app/SWEMS/build_out/hal_drv/libhal_drv.a(bl_flash.o)
 .debug_line    0x0000000000000000      0x5e2 /home/parag/bl_iot_sdk/customer_app/SWEMS/build_out/hal_drv/libhal_drv.a(bl_flash.o)
 .debug_str     0x0000000000000000     0x2299 /home/parag/bl_iot_sdk/customer_app/SWEMS/build_out/hal_drv/libhal_drv.a(bl_flash.o)
 .comment       0x0000000000000000       0x29 /home/parag/bl_iot_sdk/customer_app/SWEMS/build_out/hal_drv/libhal_drv.a(bl_flash.o)
 .debug_frame   0x0000000000000000       0xa8 /home/parag/bl_iot_sdk/customer_app/SWEMS/build_out/hal_drv/libhal_drv.a(bl_flash.o)
 .riscv.attributes
                0x0000000000000000       0x2b /home/parag/bl_iot_sdk/customer_app/SWEMS/build_out/hal_drv/libhal_drv.a(bl_flash.o)
 .text          0x0000000000000000        0x0 /home/parag/bl_iot_sdk/customer_app/SWEMS/build_out/SWEMS/libSWEMS.a(main.o)
 .data          0x0000000000000000        0x0 /home/parag/bl_iot_sdk/customer_app/SWEMS/build_out/SWEMS/libSWEMS.a(main.o)
 .bss           0x0000000000000000        0x0 /home/parag/bl_iot_sdk/customer_app/SWEMS/build_out/SWEMS/libSWEMS.a(main.o)
 .text          0x0000000000000000        0x0 /home/parag/bl_iot_sdk/customer_app/SWEMS/build_out/SWEMS/libSWEMS.a(buzzer.o)
 .data          0x0000000000000000        0x0 /home/parag/bl_iot_sdk/customer_app/SWEMS/build_out/SWEMS/libSWEMS.a(buzzer.o)
 .bss           0x0000000000000000        0x0 /home/parag/bl_iot_sdk/customer_app/SWEMS/build_out/SWEMS/libSWEMS.a(buzzer.o)
 .text          0x0000000000000000        0x0 /home/parag/bl_iot_sdk/customer_app/SWEMS/build_out/bl602_std/libbl602_std.a(softcrc.o)
 .data          0x0000000000000000        0x0 /home/parag/bl_iot_sdk/customer_app/SWEMS/build_out/bl602_std/libbl602_std.a(softcrc.o)
 .bss           0x0000000000000000        0x0 /home/parag/bl_iot_sdk/customer_app/SWEMS/build_out/bl602_std/libbl602_std.a(softcrc.o)
 .text.BFLB_Soft_CRC16
                0x0000000000000000       0x40 /home/parag/bl_iot_sdk/customer_app/SWEMS/build_out/bl602_std/libbl602_std.a(softcrc.o)
 .text.BFLB_Soft_CRC32_Table
                0x0000000000000000       0x2e /home/parag/bl_iot_sdk/customer_app/SWEMS/build_out/bl602_std/libbl602_std.a(softcrc.o)
 .tcm_code      0x0000000000000000       0x34 /home/parag/bl_iot_sdk/customer_app/SWEMS/build_out/bl602_std/libbl602_std.a(softcrc.o)
 .rodata.chCRCHTalbe
                0x0000000000000000      0x100 /home/parag/bl_iot_sdk/customer_app/SWEMS/build_out/bl602_std/libbl602_std.a(softcrc.o)
 .rodata.chCRCLTalbe
                0x0000000000000000      0x100 /home/parag/bl_iot_sdk/customer_app/SWEMS/build_out/bl602_std/libbl602_std.a(softcrc.o)
 .rodata.crc32Tab
                0x0000000000000000      0x400 /home/parag/bl_iot_sdk/customer_app/SWEMS/build_out/bl602_std/libbl602_std.a(softcrc.o)
 .debug_info    0x0000000000000000      0xaea /home/parag/bl_iot_sdk/customer_app/SWEMS/build_out/bl602_std/libbl602_std.a(softcrc.o)
 .debug_abbrev  0x0000000000000000      0x246 /home/parag/bl_iot_sdk/customer_app/SWEMS/build_out/bl602_std/libbl602_std.a(softcrc.o)
 .debug_loc     0x0000000000000000      0x240 /home/parag/bl_iot_sdk/customer_app/SWEMS/build_out/bl602_std/libbl602_std.a(softcrc.o)
 .debug_aranges
                0x0000000000000000       0x30 /home/parag/bl_iot_sdk/customer_app/SWEMS/build_out/bl602_std/libbl602_std.a(softcrc.o)
 .debug_ranges  0x0000000000000000       0x20 /home/parag/bl_iot_sdk/customer_app/SWEMS/build_out/bl602_std/libbl602_std.a(softcrc.o)
 .debug_line    0x0000000000000000      0x40b /home/parag/bl_iot_sdk/customer_app/SWEMS/build_out/bl602_std/libbl602_std.a(softcrc.o)
 .debug_str     0x0000000000000000      0x65d /home/parag/bl_iot_sdk/customer_app/SWEMS/build_out/bl602_std/libbl602_std.a(softcrc.o)
 .comment       0x0000000000000000       0x29 /home/parag/bl_iot_sdk/customer_app/SWEMS/build_out/bl602_std/libbl602_std.a(softcrc.o)
 .debug_frame   0x0000000000000000       0x40 /home/parag/bl_iot_sdk/customer_app/SWEMS/build_out/bl602_std/libbl602_std.a(softcrc.o)
 .riscv.attributes
                0x0000000000000000       0x2b /home/parag/bl_iot_sdk/customer_app/SWEMS/build_out/bl602_std/libbl602_std.a(softcrc.o)
 .text          0x0000000000000000        0x0 /home/parag/bl_iot_sdk/customer_app/SWEMS/build_out/freertos_riscv_ram/libfreertos_riscv_ram.a(tasks.o)
 .data          0x0000000000000000        0x0 /home/parag/bl_iot_sdk/customer_app/SWEMS/build_out/freertos_riscv_ram/libfreertos_riscv_ram.a(tasks.o)
 .bss           0x0000000000000000        0x0 /home/parag/bl_iot_sdk/customer_app/SWEMS/build_out/freertos_riscv_ram/libfreertos_riscv_ram.a(tasks.o)
 .text.xTaskCreate
                0x0000000000000000       0x90 /home/parag/bl_iot_sdk/customer_app/SWEMS/build_out/freertos_riscv_ram/libfreertos_riscv_ram.a(tasks.o)
 .text.vTaskDelete
                0x0000000000000000      0x152 /home/parag/bl_iot_sdk/customer_app/SWEMS/build_out/freertos_riscv_ram/libfreertos_riscv_ram.a(tasks.o)
 .text.eTaskGetState
                0x0000000000000000       0xda /home/parag/bl_iot_sdk/customer_app/SWEMS/build_out/freertos_riscv_ram/libfreertos_riscv_ram.a(tasks.o)
 .text.uxTaskPriorityGet
                0x0000000000000000       0x56 /home/parag/bl_iot_sdk/customer_app/SWEMS/build_out/freertos_riscv_ram/libfreertos_riscv_ram.a(tasks.o)
 .text.uxTaskPriorityGetFromISR
                0x0000000000000000       0x12 /home/parag/bl_iot_sdk/customer_app/SWEMS/build_out/freertos_riscv_ram/libfreertos_riscv_ram.a(tasks.o)
 .text.vTaskPrioritySet
                0x0000000000000000      0x144 /home/parag/bl_iot_sdk/customer_app/SWEMS/build_out/freertos_riscv_ram/libfreertos_riscv_ram.a(tasks.o)
 .text.vTaskResume
                0x0000000000000000       0xe4 /home/parag/bl_iot_sdk/customer_app/SWEMS/build_out/freertos_riscv_ram/libfreertos_riscv_ram.a(tasks.o)
 .text.xTaskResumeFromISR
                0x0000000000000000       0xd8 /home/parag/bl_iot_sdk/customer_app/SWEMS/build_out/freertos_riscv_ram/libfreertos_riscv_ram.a(tasks.o)
 .text.vTaskEndScheduler
                0x0000000000000000       0x14 /home/parag/bl_iot_sdk/customer_app/SWEMS/build_out/freertos_riscv_ram/libfreertos_riscv_ram.a(tasks.o)
 .text.xTaskGetTickCount2
                0x0000000000000000       0x18 /home/parag/bl_iot_sdk/customer_app/SWEMS/build_out/freertos_riscv_ram/libfreertos_riscv_ram.a(tasks.o)
 .text.xTaskGetTickCountFromISR
                0x0000000000000000        0xa /home/parag/bl_iot_sdk/customer_app/SWEMS/build_out/freertos_riscv_ram/libfreertos_riscv_ram.a(tasks.o)
 .text.uxTaskGetNumberOfTasks
                0x0000000000000000        0xa /home/parag/bl_iot_sdk/customer_app/SWEMS/build_out/freertos_riscv_ram/libfreertos_riscv_ram.a(tasks.o)
 .text.pcTaskGetName
                0x0000000000000000       0x2c /home/parag/bl_iot_sdk/customer_app/SWEMS/build_out/freertos_riscv_ram/libfreertos_riscv_ram.a(tasks.o)
 .text.vTaskStepTickSafe
                0x0000000000000000      0x102 /home/parag/bl_iot_sdk/customer_app/SWEMS/build_out/freertos_riscv_ram/libfreertos_riscv_ram.a(tasks.o)
 .text.vTaskDelayUntil
                0x0000000000000000       0x8e /home/parag/bl_iot_sdk/customer_app/SWEMS/build_out/freertos_riscv_ram/libfreertos_riscv_ram.a(tasks.o)
 .text.vTaskSuspend
                0x0000000000000000      0x190 /home/parag/bl_iot_sdk/customer_app/SWEMS/build_out/freertos_riscv_ram/libfreertos_riscv_ram.a(tasks.o)
 .text.vTaskPlaceOnUnorderedEventList
                0x0000000000000000       0x66 /home/parag/bl_iot_sdk/customer_app/SWEMS/build_out/freertos_riscv_ram/libfreertos_riscv_ram.a(tasks.o)
 .text.vTaskRemoveFromUnorderedEventList
                0x0000000000000000       0xb6 /home/parag/bl_iot_sdk/customer_app/SWEMS/build_out/freertos_riscv_ram/libfreertos_riscv_ram.a(tasks.o)
 .text.vTaskSetTimeOutState
                0x0000000000000000       0x6c /home/parag/bl_iot_sdk/customer_app/SWEMS/build_out/freertos_riscv_ram/libfreertos_riscv_ram.a(tasks.o)
 .text.uxTaskGetTaskNumber
                0x0000000000000000        0xa /home/parag/bl_iot_sdk/customer_app/SWEMS/build_out/freertos_riscv_ram/libfreertos_riscv_ram.a(tasks.o)
 .text.vTaskSetTaskNumber
                0x0000000000000000        0x6 /home/parag/bl_iot_sdk/customer_app/SWEMS/build_out/freertos_riscv_ram/libfreertos_riscv_ram.a(tasks.o)
 .text.vTaskGetInfo
                0x0000000000000000       0xde /home/parag/bl_iot_sdk/customer_app/SWEMS/build_out/freertos_riscv_ram/libfreertos_riscv_ram.a(tasks.o)
 .text.prvListTasksWithinSingleList.part.11
                0x0000000000000000       0x92 /home/parag/bl_iot_sdk/customer_app/SWEMS/build_out/freertos_riscv_ram/libfreertos_riscv_ram.a(tasks.o)
 .text.uxTaskGetSystemState
                0x0000000000000000      0x12c /home/parag/bl_iot_sdk/customer_app/SWEMS/build_out/freertos_riscv_ram/libfreertos_riscv_ram.a(tasks.o)
 .text.uxTaskGetStackHighWaterMark
                0x0000000000000000       0x46 /home/parag/bl_iot_sdk/customer_app/SWEMS/build_out/freertos_riscv_ram/libfreertos_riscv_ram.a(tasks.o)
 .text.xTaskGetCurrentTaskHandle
                0x0000000000000000        0xa /home/parag/bl_iot_sdk/customer_app/SWEMS/build_out/freertos_riscv_ram/libfreertos_riscv_ram.a(tasks.o)
 .text.xTaskPriorityInherit
                0x0000000000000000       0xea /home/parag/bl_iot_sdk/customer_app/SWEMS/build_out/freertos_riscv_ram/libfreertos_riscv_ram.a(tasks.o)
 .text.vTaskPriorityDisinheritAfterTimeout
                0x0000000000000000      0x116 /home/parag/bl_iot_sdk/customer_app/SWEMS/build_out/freertos_riscv_ram/libfreertos_riscv_ram.a(tasks.o)
 .text.vTaskList
                0x0000000000000000      0x11a /home/parag/bl_iot_sdk/customer_app/SWEMS/build_out/freertos_riscv_ram/libfreertos_riscv_ram.a(tasks.o)
 .text.uxTaskResetEventItemValue
                0x0000000000000000       0x1c /home/parag/bl_iot_sdk/customer_app/SWEMS/build_out/freertos_riscv_ram/libfreertos_riscv_ram.a(tasks.o)
 .text.pvTaskIncrementMutexHeldCount
                0x0000000000000000       0x18 /home/parag/bl_iot_sdk/customer_app/SWEMS/build_out/freertos_riscv_ram/libfreertos_riscv_ram.a(tasks.o)
 .text.ulTaskNotifyTake
                0x0000000000000000       0xba /home/parag/bl_iot_sdk/customer_app/SWEMS/build_out/freertos_riscv_ram/libfreertos_riscv_ram.a(tasks.o)
 .text.xTaskNotifyWait
                0x0000000000000000       0xf4 /home/parag/bl_iot_sdk/customer_app/SWEMS/build_out/freertos_riscv_ram/libfreertos_riscv_ram.a(tasks.o)
 .text.xTaskGenericNotify
                0x0000000000000000      0x14a /home/parag/bl_iot_sdk/customer_app/SWEMS/build_out/freertos_riscv_ram/libfreertos_riscv_ram.a(tasks.o)
 .rodata.xTaskGenericNotify
                0x0000000000000000       0x14 /home/parag/bl_iot_sdk/customer_app/SWEMS/build_out/freertos_riscv_ram/libfreertos_riscv_ram.a(tasks.o)
 .text.xTaskGenericNotifyFromISR
                0x0000000000000000      0x134 /home/parag/bl_iot_sdk/customer_app/SWEMS/build_out/freertos_riscv_ram/libfreertos_riscv_ram.a(tasks.o)
 .rodata.xTaskGenericNotifyFromISR
                0x0000000000000000       0x14 /home/parag/bl_iot_sdk/customer_app/SWEMS/build_out/freertos_riscv_ram/libfreertos_riscv_ram.a(tasks.o)
 .text.vTaskNotifyGiveFromISR
                0x0000000000000000       0xd4 /home/parag/bl_iot_sdk/customer_app/SWEMS/build_out/freertos_riscv_ram/libfreertos_riscv_ram.a(tasks.o)
 .text.xTaskNotifyStateClear
                0x0000000000000000       0x66 /home/parag/bl_iot_sdk/customer_app/SWEMS/build_out/freertos_riscv_ram/libfreertos_riscv_ram.a(tasks.o)
 .rodata.vTaskList.str1.4
                0x0000000000000000       0x12 /home/parag/bl_iot_sdk/customer_app/SWEMS/build_out/freertos_riscv_ram/libfreertos_riscv_ram.a(tasks.o)
 .sdata2.CSWTCH.175
                0x0000000000000000        0x5 /home/parag/bl_iot_sdk/customer_app/SWEMS/build_out/freertos_riscv_ram/libfreertos_riscv_ram.a(tasks.o)
 .text          0x0000000000000000        0x0 /home/parag/bl_iot_sdk/customer_app/SWEMS/build_out/freertos_riscv_ram/libfreertos_riscv_ram.a(timers.o)
 .data          0x0000000000000000        0x0 /home/parag/bl_iot_sdk/customer_app/SWEMS/build_out/freertos_riscv_ram/libfreertos_riscv_ram.a(timers.o)
 .bss           0x0000000000000000        0x0 /home/parag/bl_iot_sdk/customer_app/SWEMS/build_out/freertos_riscv_ram/libfreertos_riscv_ram.a(timers.o)
 .text.xTimerCreate
                0x0000000000000000       0x80 /home/parag/bl_iot_sdk/customer_app/SWEMS/build_out/freertos_riscv_ram/libfreertos_riscv_ram.a(timers.o)
 .text.xTimerCreateStatic
                0x0000000000000000       0x96 /home/parag/bl_iot_sdk/customer_app/SWEMS/build_out/freertos_riscv_ram/libfreertos_riscv_ram.a(timers.o)
 .text.xTimerGetTimerDaemonTaskHandle
                0x0000000000000000       0x2c /home/parag/bl_iot_sdk/customer_app/SWEMS/build_out/freertos_riscv_ram/libfreertos_riscv_ram.a(timers.o)
 .text.xTimerGetPeriod
                0x0000000000000000       0x1e /home/parag/bl_iot_sdk/customer_app/SWEMS/build_out/freertos_riscv_ram/libfreertos_riscv_ram.a(timers.o)
 .text.vTimerSetReloadMode
                0x0000000000000000       0x56 /home/parag/bl_iot_sdk/customer_app/SWEMS/build_out/freertos_riscv_ram/libfreertos_riscv_ram.a(timers.o)
 .text.xTimerGetExpiryTime
                0x0000000000000000       0x1e /home/parag/bl_iot_sdk/customer_app/SWEMS/build_out/freertos_riscv_ram/libfreertos_riscv_ram.a(timers.o)
 .text.pcTimerGetName
                0x0000000000000000       0x1e /home/parag/bl_iot_sdk/customer_app/SWEMS/build_out/freertos_riscv_ram/libfreertos_riscv_ram.a(timers.o)
 .text.xTimerIsTimerActive
                0x0000000000000000       0x34 /home/parag/bl_iot_sdk/customer_app/SWEMS/build_out/freertos_riscv_ram/libfreertos_riscv_ram.a(timers.o)
 .text.pvTimerGetTimerID
                0x0000000000000000       0x30 /home/parag/bl_iot_sdk/customer_app/SWEMS/build_out/freertos_riscv_ram/libfreertos_riscv_ram.a(timers.o)
 .text.vTimerSetTimerID
                0x0000000000000000       0x32 /home/parag/bl_iot_sdk/customer_app/SWEMS/build_out/freertos_riscv_ram/libfreertos_riscv_ram.a(timers.o)
 .text.xTimerPendFunctionCallFromISR
                0x0000000000000000       0x2c /home/parag/bl_iot_sdk/customer_app/SWEMS/build_out/freertos_riscv_ram/libfreertos_riscv_ram.a(timers.o)
 .text.xTimerPendFunctionCall
                0x0000000000000000       0x56 /home/parag/bl_iot_sdk/customer_app/SWEMS/build_out/freertos_riscv_ram/libfreertos_riscv_ram.a(timers.o)
 .text.uxTimerGetTimerNumber
                0x0000000000000000        0x4 /home/parag/bl_iot_sdk/customer_app/SWEMS/build_out/freertos_riscv_ram/libfreertos_riscv_ram.a(timers.o)
 .text.vTimerSetTimerNumber
                0x0000000000000000        0x4 /home/parag/bl_iot_sdk/customer_app/SWEMS/build_out/freertos_riscv_ram/libfreertos_riscv_ram.a(timers.o)
 .text          0x0000000000000000        0x0 /home/parag/bl_iot_sdk/customer_app/SWEMS/build_out/freertos_riscv_ram/libfreertos_riscv_ram.a(port.o)
 .data          0x0000000000000000        0x0 /home/parag/bl_iot_sdk/customer_app/SWEMS/build_out/freertos_riscv_ram/libfreertos_riscv_ram.a(port.o)
 .bss           0x0000000000000000        0x0 /home/parag/bl_iot_sdk/customer_app/SWEMS/build_out/freertos_riscv_ram/libfreertos_riscv_ram.a(port.o)
 .text.vPortEndScheduler
                0x0000000000000000        0x2 /home/parag/bl_iot_sdk/customer_app/SWEMS/build_out/freertos_riscv_ram/libfreertos_riscv_ram.a(port.o)
 .data          0x0000000000000000        0x0 /home/parag/bl_iot_sdk/customer_app/SWEMS/build_out/freertos_riscv_ram/libfreertos_riscv_ram.a(portASM.o)
 .bss           0x0000000000000000        0x0 /home/parag/bl_iot_sdk/customer_app/SWEMS/build_out/freertos_riscv_ram/libfreertos_riscv_ram.a(portASM.o)
 .text          0x0000000000000000        0x0 /home/parag/bl_iot_sdk/customer_app/SWEMS/build_out/freertos_riscv_ram/libfreertos_riscv_ram.a(heap_5.o)
 .data          0x0000000000000000        0x0 /home/parag/bl_iot_sdk/customer_app/SWEMS/build_out/freertos_riscv_ram/libfreertos_riscv_ram.a(heap_5.o)
 .bss           0x0000000000000000        0x0 /home/parag/bl_iot_sdk/customer_app/SWEMS/build_out/freertos_riscv_ram/libfreertos_riscv_ram.a(heap_5.o)
 .text.pvPortMalloc
                0x0000000000000000      0x100 /home/parag/bl_iot_sdk/customer_app/SWEMS/build_out/freertos_riscv_ram/libfreertos_riscv_ram.a(heap_5.o)
 .text.pvPortCalloc
                0x0000000000000000       0x32 /home/parag/bl_iot_sdk/customer_app/SWEMS/build_out/freertos_riscv_ram/libfreertos_riscv_ram.a(heap_5.o)
 .text.xPortGetFreeHeapSize
                0x0000000000000000        0xa /home/parag/bl_iot_sdk/customer_app/SWEMS/build_out/freertos_riscv_ram/libfreertos_riscv_ram.a(heap_5.o)
 .text.xPortGetMinimumEverFreeHeapSize
                0x0000000000000000        0xa /home/parag/bl_iot_sdk/customer_app/SWEMS/build_out/freertos_riscv_ram/libfreertos_riscv_ram.a(heap_5.o)
 .text.vPortDefineHeapRegions
                0x0000000000000000      0x114 /home/parag/bl_iot_sdk/customer_app/SWEMS/build_out/freertos_riscv_ram/libfreertos_riscv_ram.a(heap_5.o)
 .sbss.xMinimumEverFreeBytesRemaining
                0x0000000000000000        0x4 /home/parag/bl_iot_sdk/customer_app/SWEMS/build_out/freertos_riscv_ram/libfreertos_riscv_ram.a(heap_5.o)
 .text          0x0000000000000000        0x0 /home/parag/bl_iot_sdk/customer_app/SWEMS/build_out/freertos_riscv_ram/libfreertos_riscv_ram.a(list.o)
 .data          0x0000000000000000        0x0 /home/parag/bl_iot_sdk/customer_app/SWEMS/build_out/freertos_riscv_ram/libfreertos_riscv_ram.a(list.o)
 .bss           0x0000000000000000        0x0 /home/parag/bl_iot_sdk/customer_app/SWEMS/build_out/freertos_riscv_ram/libfreertos_riscv_ram.a(list.o)
 .text          0x0000000000000000        0x0 /home/parag/bl_iot_sdk/customer_app/SWEMS/build_out/freertos_riscv_ram/libfreertos_riscv_ram.a(queue.o)
 .data          0x0000000000000000        0x0 /home/parag/bl_iot_sdk/customer_app/SWEMS/build_out/freertos_riscv_ram/libfreertos_riscv_ram.a(queue.o)
 .bss           0x0000000000000000        0x0 /home/parag/bl_iot_sdk/customer_app/SWEMS/build_out/freertos_riscv_ram/libfreertos_riscv_ram.a(queue.o)
 .text.xQueueGenericCreate
                0x0000000000000000       0x90 /home/parag/bl_iot_sdk/customer_app/SWEMS/build_out/freertos_riscv_ram/libfreertos_riscv_ram.a(queue.o)
 .text.xQueueCreateCountingSemaphoreStatic
                0x0000000000000000       0x4e /home/parag/bl_iot_sdk/customer_app/SWEMS/build_out/freertos_riscv_ram/libfreertos_riscv_ram.a(queue.o)
 .text.xQueueCreateCountingSemaphore
                0x0000000000000000       0x44 /home/parag/bl_iot_sdk/customer_app/SWEMS/build_out/freertos_riscv_ram/libfreertos_riscv_ram.a(queue.o)
 .text.xQueueCreateMutexStatic
                0x0000000000000000       0x40 /home/parag/bl_iot_sdk/customer_app/SWEMS/build_out/freertos_riscv_ram/libfreertos_riscv_ram.a(queue.o)
 .text.xQueueGiveMutexRecursive
                0x0000000000000000       0x54 /home/parag/bl_iot_sdk/customer_app/SWEMS/build_out/freertos_riscv_ram/libfreertos_riscv_ram.a(queue.o)
 .text.xQueueCreateMutex
                0x0000000000000000       0x3c /home/parag/bl_iot_sdk/customer_app/SWEMS/build_out/freertos_riscv_ram/libfreertos_riscv_ram.a(queue.o)
 .text.xQueueGiveFromISR
                0x0000000000000000       0x8a /home/parag/bl_iot_sdk/customer_app/SWEMS/build_out/freertos_riscv_ram/libfreertos_riscv_ram.a(queue.o)
 .text.xQueueSemaphoreTake
                0x0000000000000000      0x218 /home/parag/bl_iot_sdk/customer_app/SWEMS/build_out/freertos_riscv_ram/libfreertos_riscv_ram.a(queue.o)
 .text.xQueueTakeMutexRecursive
                0x0000000000000000       0x5c /home/parag/bl_iot_sdk/customer_app/SWEMS/build_out/freertos_riscv_ram/libfreertos_riscv_ram.a(queue.o)
 .text.xQueuePeek
                0x0000000000000000      0x1a4 /home/parag/bl_iot_sdk/customer_app/SWEMS/build_out/freertos_riscv_ram/libfreertos_riscv_ram.a(queue.o)
 .text.xQueueReceiveFromISR
                0x0000000000000000       0xa2 /home/parag/bl_iot_sdk/customer_app/SWEMS/build_out/freertos_riscv_ram/libfreertos_riscv_ram.a(queue.o)
 .text.xQueuePeekFromISR
                0x0000000000000000       0x70 /home/parag/bl_iot_sdk/customer_app/SWEMS/build_out/freertos_riscv_ram/libfreertos_riscv_ram.a(queue.o)
 .text.uxQueueMessagesWaiting
                0x0000000000000000       0x30 /home/parag/bl_iot_sdk/customer_app/SWEMS/build_out/freertos_riscv_ram/libfreertos_riscv_ram.a(queue.o)
 .text.uxQueueSpacesAvailable
                0x0000000000000000       0x38 /home/parag/bl_iot_sdk/customer_app/SWEMS/build_out/freertos_riscv_ram/libfreertos_riscv_ram.a(queue.o)
 .text.uxQueueMessagesWaitingFromISR
                0x0000000000000000       0x1e /home/parag/bl_iot_sdk/customer_app/SWEMS/build_out/freertos_riscv_ram/libfreertos_riscv_ram.a(queue.o)
 .text.vQueueDelete
                0x0000000000000000       0x92 /home/parag/bl_iot_sdk/customer_app/SWEMS/build_out/freertos_riscv_ram/libfreertos_riscv_ram.a(queue.o)
 .text.uxQueueGetQueueNumber
                0x0000000000000000        0x4 /home/parag/bl_iot_sdk/customer_app/SWEMS/build_out/freertos_riscv_ram/libfreertos_riscv_ram.a(queue.o)
 .text.vQueueSetQueueNumber
                0x0000000000000000        0x4 /home/parag/bl_iot_sdk/customer_app/SWEMS/build_out/freertos_riscv_ram/libfreertos_riscv_ram.a(queue.o)
 .text.ucQueueGetQueueType
                0x0000000000000000        0x6 /home/parag/bl_iot_sdk/customer_app/SWEMS/build_out/freertos_riscv_ram/libfreertos_riscv_ram.a(queue.o)
 .text.xQueueIsQueueEmptyFromISR
                0x0000000000000000       0x26 /home/parag/bl_iot_sdk/customer_app/SWEMS/build_out/freertos_riscv_ram/libfreertos_riscv_ram.a(queue.o)
 .text.xQueueIsQueueFullFromISR
                0x0000000000000000       0x2e /home/parag/bl_iot_sdk/customer_app/SWEMS/build_out/freertos_riscv_ram/libfreertos_riscv_ram.a(queue.o)
 .text.pcQueueGetName
                0x0000000000000000       0x2a /home/parag/bl_iot_sdk/customer_app/SWEMS/build_out/freertos_riscv_ram/libfreertos_riscv_ram.a(queue.o)
 .text.vQueueUnregisterQueue
                0x0000000000000000       0x2e /home/parag/bl_iot_sdk/customer_app/SWEMS/build_out/freertos_riscv_ram/libfreertos_riscv_ram.a(queue.o)
 .text          0x0000000000000000        0x0 /home/parag/bl_iot_sdk/customer_app/SWEMS/build_out/hal_drv/libhal_drv.a(bl_irq.o)
 .data          0x0000000000000000        0x0 /home/parag/bl_iot_sdk/customer_app/SWEMS/build_out/hal_drv/libhal_drv.a(bl_irq.o)
 .bss           0x0000000000000000        0x0 /home/parag/bl_iot_sdk/customer_app/SWEMS/build_out/hal_drv/libhal_drv.a(bl_irq.o)
 .text.bl_irq_enable
                0x0000000000000000       0x12 /home/parag/bl_iot_sdk/customer_app/SWEMS/build_out/hal_drv/libhal_drv.a(bl_irq.o)
 .text.bl_irq_disable
                0x0000000000000000       0x10 /home/parag/bl_iot_sdk/customer_app/SWEMS/build_out/hal_drv/libhal_drv.a(bl_irq.o)
 .text.bl_irq_pending_set
                0x0000000000000000        0xe /home/parag/bl_iot_sdk/customer_app/SWEMS/build_out/hal_drv/libhal_drv.a(bl_irq.o)
 .text.bl_irq_pending_clear
                0x0000000000000000        0xc /home/parag/bl_iot_sdk/customer_app/SWEMS/build_out/hal_drv/libhal_drv.a(bl_irq.o)
 .text.bl_irq_exception_trigger
                0x0000000000000000       0x56 /home/parag/bl_iot_sdk/customer_app/SWEMS/build_out/hal_drv/libhal_drv.a(bl_irq.o)
 .text.bl_irq_default
                0x0000000000000000        0x2 /home/parag/bl_iot_sdk/customer_app/SWEMS/build_out/hal_drv/libhal_drv.a(bl_irq.o)
 .text.bl_irq_register_with_ctx
                0x0000000000000000       0x30 /home/parag/bl_iot_sdk/customer_app/SWEMS/build_out/hal_drv/libhal_drv.a(bl_irq.o)
 .text.bl_irq_ctx_get
                0x0000000000000000       0x20 /home/parag/bl_iot_sdk/customer_app/SWEMS/build_out/hal_drv/libhal_drv.a(bl_irq.o)
 .text.bl_irq_register
                0x0000000000000000        0xa /home/parag/bl_iot_sdk/customer_app/SWEMS/build_out/hal_drv/libhal_drv.a(bl_irq.o)
 .text.bl_irq_unregister
                0x0000000000000000       0x1c /home/parag/bl_iot_sdk/customer_app/SWEMS/build_out/hal_drv/libhal_drv.a(bl_irq.o)
 .text.bl_irq_init
                0x0000000000000000       0x42 /home/parag/bl_iot_sdk/customer_app/SWEMS/build_out/hal_drv/libhal_drv.a(bl_irq.o)
 .rodata.bl_irq_exception_trigger.str1.4
                0x0000000000000000       0x21 /home/parag/bl_iot_sdk/customer_app/SWEMS/build_out/hal_drv/libhal_drv.a(bl_irq.o)
 .rodata.bl_irq_init.str1.4
                0x0000000000000000       0x34 /home/parag/bl_iot_sdk/customer_app/SWEMS/build_out/hal_drv/libhal_drv.a(bl_irq.o)
 .text          0x0000000000000000        0x0 /home/parag/bl_iot_sdk/customer_app/SWEMS/build_out/hal_drv/libhal_drv.a(bl_gpio.o)
 .data          0x0000000000000000        0x0 /home/parag/bl_iot_sdk/customer_app/SWEMS/build_out/hal_drv/libhal_drv.a(bl_gpio.o)
 .bss           0x0000000000000000        0x0 /home/parag/bl_iot_sdk/customer_app/SWEMS/build_out/hal_drv/libhal_drv.a(bl_gpio.o)
 .text.gpio_interrupt_entry
                0x0000000000000000       0x48 /home/parag/bl_iot_sdk/customer_app/SWEMS/build_out/hal_drv/libhal_drv.a(bl_gpio.o)
 .text.bl_gpio_enable_input
                0x0000000000000000       0x42 /home/parag/bl_iot_sdk/customer_app/SWEMS/build_out/hal_drv/libhal_drv.a(bl_gpio.o)
 .text.bl_gpio_input_get
                0x0000000000000000       0x1c /home/parag/bl_iot_sdk/customer_app/SWEMS/build_out/hal_drv/libhal_drv.a(bl_gpio.o)
 .text.bl_gpio_input_get_value
                0x0000000000000000        0x8 /home/parag/bl_iot_sdk/customer_app/SWEMS/build_out/hal_drv/libhal_drv.a(bl_gpio.o)
 .text.bl_gpio_intmask
                0x0000000000000000        0xc /home/parag/bl_iot_sdk/customer_app/SWEMS/build_out/hal_drv/libhal_drv.a(bl_gpio.o)
 .text.bl_set_gpio_intmod
                0x0000000000000000        0x8 /home/parag/bl_iot_sdk/customer_app/SWEMS/build_out/hal_drv/libhal_drv.a(bl_gpio.o)
 .text.bl_gpio_int_clear
                0x0000000000000000       0x2e /home/parag/bl_iot_sdk/customer_app/SWEMS/build_out/hal_drv/libhal_drv.a(bl_gpio.o)
 .text.bl_gpio_register
                0x0000000000000000       0x60 /home/parag/bl_iot_sdk/customer_app/SWEMS/build_out/hal_drv/libhal_drv.a(bl_gpio.o)
 .text          0x0000000000000000        0x0 /home/parag/bl_iot_sdk/customer_app/SWEMS/build_out/SWEMS/libSWEMS.a(freertos.o)
 .data          0x0000000000000000        0x0 /home/parag/bl_iot_sdk/customer_app/SWEMS/build_out/SWEMS/libSWEMS.a(freertos.o)
 .bss           0x0000000000000000        0x0 /home/parag/bl_iot_sdk/customer_app/SWEMS/build_out/SWEMS/libSWEMS.a(freertos.o)
 .text.vApplicationMallocFailedHook
                0x0000000000000000       0x20 /home/parag/bl_iot_sdk/customer_app/SWEMS/build_out/SWEMS/libSWEMS.a(freertos.o)
 .rodata.vApplicationMallocFailedHook.str1.4
                0x0000000000000000       0x34 /home/parag/bl_iot_sdk/customer_app/SWEMS/build_out/SWEMS/libSWEMS.a(freertos.o)
 .text          0x0000000000000000        0x0 /home/parag/bl_iot_sdk/customer_app/SWEMS/build_out/bl602/libbl602.a(debug.o)
 .data          0x0000000000000000        0x0 /home/parag/bl_iot_sdk/customer_app/SWEMS/build_out/bl602/libbl602.a(debug.o)
 .bss           0x0000000000000000        0x0 /home/parag/bl_iot_sdk/customer_app/SWEMS/build_out/bl602/libbl602.a(debug.o)
 .text.bl_putchar
                0x0000000000000000       0x1a /home/parag/bl_iot_sdk/customer_app/SWEMS/build_out/bl602/libbl602.a(debug.o)
 .text.sprintf  0x0000000000000000       0x26 /home/parag/bl_iot_sdk/customer_app/SWEMS/build_out/bl602/libbl602.a(debug.o)
 .text.snprintf
                0x0000000000000000       0x20 /home/parag/bl_iot_sdk/customer_app/SWEMS/build_out/bl602/libbl602.a(debug.o)
 .text.vMainUARTPrintString
                0x0000000000000000        0x8 /home/parag/bl_iot_sdk/customer_app/SWEMS/build_out/bl602/libbl602.a(debug.o)
 .text          0x0000000000000000        0x0 /home/parag/bl_iot_sdk/customer_app/SWEMS/build_out/bl602_std/libbl602_std.a(bl602_glb.o)
 .data          0x0000000000000000        0x0 /home/parag/bl_iot_sdk/customer_app/SWEMS/build_out/bl602_std/libbl602_std.a(bl602_glb.o)
 .bss           0x0000000000000000        0x0 /home/parag/bl_iot_sdk/customer_app/SWEMS/build_out/bl602_std/libbl602_std.a(bl602_glb.o)
 .sclock_rlt_code
                0x0000000000000000      0x3ae /home/parag/bl_iot_sdk/customer_app/SWEMS/build_out/bl602_std/libbl602_std.a(bl602_glb.o)
 .rodata        0x0000000000000000       0x44 /home/parag/bl_iot_sdk/customer_app/SWEMS/build_out/bl602_std/libbl602_std.a(bl602_glb.o)
 .text.GLB_Set_BLE_CLK
                0x0000000000000000       0x22 /home/parag/bl_iot_sdk/customer_app/SWEMS/build_out/bl602_std/libbl602_std.a(bl602_glb.o)
 .text.GLB_Set_WiFi_Core_CLK
                0x0000000000000000       0x10 /home/parag/bl_iot_sdk/customer_app/SWEMS/build_out/bl602_std/libbl602_std.a(bl602_glb.o)
 .text.GLB_Set_WiFi_Encrypt_CLK
                0x0000000000000000       0x14 /home/parag/bl_iot_sdk/customer_app/SWEMS/build_out/bl602_std/libbl602_std.a(bl602_glb.o)
 .text.GLB_Set_DMA_CLK
                0x0000000000000000       0x30 /home/parag/bl_iot_sdk/customer_app/SWEMS/build_out/bl602_std/libbl602_std.a(bl602_glb.o)
 .text.GLB_Set_IR_CLK
                0x0000000000000000       0x32 /home/parag/bl_iot_sdk/customer_app/SWEMS/build_out/bl602_std/libbl602_std.a(bl602_glb.o)
 .text.GLB_Set_UART_CLK
                0x0000000000000000       0x44 /home/parag/bl_iot_sdk/customer_app/SWEMS/build_out/bl602_std/libbl602_std.a(bl602_glb.o)
 .text.GLB_Set_I2C_CLK
                0x0000000000000000       0x32 /home/parag/bl_iot_sdk/customer_app/SWEMS/build_out/bl602_std/libbl602_std.a(bl602_glb.o)
 .text.GLB_Set_SPI_CLK
                0x0000000000000000       0x22 /home/parag/bl_iot_sdk/customer_app/SWEMS/build_out/bl602_std/libbl602_std.a(bl602_glb.o)
 .tcm_code      0x0000000000000000      0x36e /home/parag/bl_iot_sdk/customer_app/SWEMS/build_out/bl602_std/libbl602_std.a(bl602_glb.o)
 .text.GLB_AHB_Slave1_Reset
                0x0000000000000000       0x34 /home/parag/bl_iot_sdk/customer_app/SWEMS/build_out/bl602_std/libbl602_std.a(bl602_glb.o)
 .text.GLB_AHB_Slave1_Clock_Gate
                0x0000000000000000       0x24 /home/parag/bl_iot_sdk/customer_app/SWEMS/build_out/bl602_std/libbl602_std.a(bl602_glb.o)
 .text.GLB_BMX_Init
                0x0000000000000000       0x2a /home/parag/bl_iot_sdk/customer_app/SWEMS/build_out/bl602_std/libbl602_std.a(bl602_glb.o)
 .text.GLB_BMX_Addr_Monitor_Enable
                0x0000000000000000        0xe /home/parag/bl_iot_sdk/customer_app/SWEMS/build_out/bl602_std/libbl602_std.a(bl602_glb.o)
 .text.GLB_BMX_Addr_Monitor_Disable
                0x0000000000000000       0x10 /home/parag/bl_iot_sdk/customer_app/SWEMS/build_out/bl602_std/libbl602_std.a(bl602_glb.o)
 .text.GLB_BMX_BusErrResponse_Enable
                0x0000000000000000       0x10 /home/parag/bl_iot_sdk/customer_app/SWEMS/build_out/bl602_std/libbl602_std.a(bl602_glb.o)
 .text.GLB_BMX_BusErrResponse_Disable
                0x0000000000000000       0x10 /home/parag/bl_iot_sdk/customer_app/SWEMS/build_out/bl602_std/libbl602_std.a(bl602_glb.o)
 .text.GLB_BMX_Get_Status
                0x0000000000000000       0x14 /home/parag/bl_iot_sdk/customer_app/SWEMS/build_out/bl602_std/libbl602_std.a(bl602_glb.o)
 .text.GLB_BMX_Get_Err_Addr
                0x0000000000000000        0x8 /home/parag/bl_iot_sdk/customer_app/SWEMS/build_out/bl602_std/libbl602_std.a(bl602_glb.o)
 .text.BMX_ERR_INT_Callback_Install
                0x0000000000000000        0x4 /home/parag/bl_iot_sdk/customer_app/SWEMS/build_out/bl602_std/libbl602_std.a(bl602_glb.o)
 .text.BMX_TIMEOUT_INT_Callback_Install
                0x0000000000000000        0x4 /home/parag/bl_iot_sdk/customer_app/SWEMS/build_out/bl602_std/libbl602_std.a(bl602_glb.o)
 .text.GLB_Set_SRAM_RET
                0x0000000000000000        0xa /home/parag/bl_iot_sdk/customer_app/SWEMS/build_out/bl602_std/libbl602_std.a(bl602_glb.o)
 .text.GLB_Get_SRAM_RET
                0x0000000000000000        0x8 /home/parag/bl_iot_sdk/customer_app/SWEMS/build_out/bl602_std/libbl602_std.a(bl602_glb.o)
 .text.GLB_Set_SRAM_SLP
                0x0000000000000000        0xa /home/parag/bl_iot_sdk/customer_app/SWEMS/build_out/bl602_std/libbl602_std.a(bl602_glb.o)
 .text.GLB_Get_SRAM_SLP
                0x0000000000000000        0x8 /home/parag/bl_iot_sdk/customer_app/SWEMS/build_out/bl602_std/libbl602_std.a(bl602_glb.o)
 .text.GLB_Set_SRAM_PARM
                0x0000000000000000        0xa /home/parag/bl_iot_sdk/customer_app/SWEMS/build_out/bl602_std/libbl602_std.a(bl602_glb.o)
 .text.GLB_Get_SRAM_PARM
                0x0000000000000000        0x8 /home/parag/bl_iot_sdk/customer_app/SWEMS/build_out/bl602_std/libbl602_std.a(bl602_glb.o)
 .text.GLB_Set_EM_Sel
                0x0000000000000000       0x10 /home/parag/bl_iot_sdk/customer_app/SWEMS/build_out/bl602_std/libbl602_std.a(bl602_glb.o)
 .text.GLB_UART_Sig_Swap_Set
                0x0000000000000000       0x1c /home/parag/bl_iot_sdk/customer_app/SWEMS/build_out/bl602_std/libbl602_std.a(bl602_glb.o)
 .text.GLB_JTAG_Sig_Swap_Set
                0x0000000000000000       0x18 /home/parag/bl_iot_sdk/customer_app/SWEMS/build_out/bl602_std/libbl602_std.a(bl602_glb.o)
 .text.GLB_Swap_SPI_0_MOSI_With_MISO
                0x0000000000000000       0x1a /home/parag/bl_iot_sdk/customer_app/SWEMS/build_out/bl602_std/libbl602_std.a(bl602_glb.o)
 .text.GLB_Set_SPI_0_ACT_MOD_Sel
                0x0000000000000000       0x1a /home/parag/bl_iot_sdk/customer_app/SWEMS/build_out/bl602_std/libbl602_std.a(bl602_glb.o)
 .text.GLB_Set_MTimer_CLK
                0x0000000000000000       0x4a /home/parag/bl_iot_sdk/customer_app/SWEMS/build_out/bl602_std/libbl602_std.a(bl602_glb.o)
 .text.GLB_Set_ADC_CLK
                0x0000000000000000       0x40 /home/parag/bl_iot_sdk/customer_app/SWEMS/build_out/bl602_std/libbl602_std.a(bl602_glb.o)
 .text.GLB_Set_DAC_CLK
                0x0000000000000000       0x4e /home/parag/bl_iot_sdk/customer_app/SWEMS/build_out/bl602_std/libbl602_std.a(bl602_glb.o)
 .text.GLB_Platform_Wakeup_Enable
                0x0000000000000000       0x16 /home/parag/bl_iot_sdk/customer_app/SWEMS/build_out/bl602_std/libbl602_std.a(bl602_glb.o)
 .text.GLB_Platform_Wakeup_Disable
                0x0000000000000000       0x14 /home/parag/bl_iot_sdk/customer_app/SWEMS/build_out/bl602_std/libbl602_std.a(bl602_glb.o)
 .text.GLB_Set_DIG_CLK_Sel
                0x0000000000000000       0x50 /home/parag/bl_iot_sdk/customer_app/SWEMS/build_out/bl602_std/libbl602_std.a(bl602_glb.o)
 .text.GLB_Set_DIG_512K_CLK
                0x0000000000000000       0x50 /home/parag/bl_iot_sdk/customer_app/SWEMS/build_out/bl602_std/libbl602_std.a(bl602_glb.o)
 .text.GLB_Set_DIG_32K_CLK
                0x0000000000000000       0x42 /home/parag/bl_iot_sdk/customer_app/SWEMS/build_out/bl602_std/libbl602_std.a(bl602_glb.o)
 .text.GLB_Set_BT_Coex_Signal
                0x0000000000000000       0x36 /home/parag/bl_iot_sdk/customer_app/SWEMS/build_out/bl602_std/libbl602_std.a(bl602_glb.o)
 .text.GLB_UART_Fun_Sel
                0x0000000000000000       0x24 /home/parag/bl_iot_sdk/customer_app/SWEMS/build_out/bl602_std/libbl602_std.a(bl602_glb.o)
 .text.GLB_IR_RX_GPIO_Sel
                0x0000000000000000       0x3c /home/parag/bl_iot_sdk/customer_app/SWEMS/build_out/bl602_std/libbl602_std.a(bl602_glb.o)
 .text.GLB_IR_LED_Driver_Enable
                0x0000000000000000       0x16 /home/parag/bl_iot_sdk/customer_app/SWEMS/build_out/bl602_std/libbl602_std.a(bl602_glb.o)
 .text.GLB_IR_LED_Driver_Disable
                0x0000000000000000       0x14 /home/parag/bl_iot_sdk/customer_app/SWEMS/build_out/bl602_std/libbl602_std.a(bl602_glb.o)
 .text.GLB_IR_LED_Driver_Ibias
                0x0000000000000000       0x1c /home/parag/bl_iot_sdk/customer_app/SWEMS/build_out/bl602_std/libbl602_std.a(bl602_glb.o)
 .text.GLB_GPIO_Func_Init
                0x0000000000000000       0x50 /home/parag/bl_iot_sdk/customer_app/SWEMS/build_out/bl602_std/libbl602_std.a(bl602_glb.o)
 .text.GLB_GPIO_Get_Real_Fun
                0x0000000000000000       0x24 /home/parag/bl_iot_sdk/customer_app/SWEMS/build_out/bl602_std/libbl602_std.a(bl602_glb.o)
 .text.GLB_GPIO_Read
                0x0000000000000000       0x20 /home/parag/bl_iot_sdk/customer_app/SWEMS/build_out/bl602_std/libbl602_std.a(bl602_glb.o)
 .text.GLB_GPIO_IntMask
                0x0000000000000000       0x2e /home/parag/bl_iot_sdk/customer_app/SWEMS/build_out/bl602_std/libbl602_std.a(bl602_glb.o)
 .text.GLB_GPIO_IntClear
                0x0000000000000000       0x2e /home/parag/bl_iot_sdk/customer_app/SWEMS/build_out/bl602_std/libbl602_std.a(bl602_glb.o)
 .text.GLB_Get_GPIO_IntStatus
                0x0000000000000000       0x1e /home/parag/bl_iot_sdk/customer_app/SWEMS/build_out/bl602_std/libbl602_std.a(bl602_glb.o)
 .text.GLB_Clr_GPIO_IntStatus
                0x0000000000000000       0x1e /home/parag/bl_iot_sdk/customer_app/SWEMS/build_out/bl602_std/libbl602_std.a(bl602_glb.o)
 .text.GLB_Set_GPIO_IntMod
                0x0000000000000000       0x84 /home/parag/bl_iot_sdk/customer_app/SWEMS/build_out/bl602_std/libbl602_std.a(bl602_glb.o)
 .text.GLB_Get_GPIO_IntCtlMod
                0x0000000000000000       0x4c /home/parag/bl_iot_sdk/customer_app/SWEMS/build_out/bl602_std/libbl602_std.a(bl602_glb.o)
 .text.GLB_GPIO_INT0_Callback_Install
                0x0000000000000000        0x4 /home/parag/bl_iot_sdk/customer_app/SWEMS/build_out/bl602_std/libbl602_std.a(bl602_glb.o)
 .text          0x0000000000000000        0x0 /home/parag/bl_iot_sdk/customer_app/SWEMS/build_out/bl602_std/libbl602_std.a(bl602_hbn.o)
 .data          0x0000000000000000        0x0 /home/parag/bl_iot_sdk/customer_app/SWEMS/build_out/bl602_std/libbl602_std.a(bl602_hbn.o)
 .bss           0x0000000000000000        0x0 /home/parag/bl_iot_sdk/customer_app/SWEMS/build_out/bl602_std/libbl602_std.a(bl602_hbn.o)
 .tcm_code      0x0000000000000000      0x2be /home/parag/bl_iot_sdk/customer_app/SWEMS/build_out/bl602_std/libbl602_std.a(bl602_hbn.o)
 .text.HBN_App_Reset
                0x0000000000000000       0xb4 /home/parag/bl_iot_sdk/customer_app/SWEMS/build_out/bl602_std/libbl602_std.a(bl602_hbn.o)
 .text.HBN_Disable
                0x0000000000000000       0x10 /home/parag/bl_iot_sdk/customer_app/SWEMS/build_out/bl602_std/libbl602_std.a(bl602_hbn.o)
 .text.HBN_PIR_Enable
                0x0000000000000000       0x10 /home/parag/bl_iot_sdk/customer_app/SWEMS/build_out/bl602_std/libbl602_std.a(bl602_hbn.o)
 .text.HBN_PIR_Disable
                0x0000000000000000       0x10 /home/parag/bl_iot_sdk/customer_app/SWEMS/build_out/bl602_std/libbl602_std.a(bl602_hbn.o)
 .text.HBN_PIR_INT_Config
                0x0000000000000000       0x2c /home/parag/bl_iot_sdk/customer_app/SWEMS/build_out/bl602_std/libbl602_std.a(bl602_hbn.o)
 .text.HBN_PIR_LPF_Sel
                0x0000000000000000       0x12 /home/parag/bl_iot_sdk/customer_app/SWEMS/build_out/bl602_std/libbl602_std.a(bl602_hbn.o)
 .text.HBN_PIR_HPF_Sel
                0x0000000000000000       0x10 /home/parag/bl_iot_sdk/customer_app/SWEMS/build_out/bl602_std/libbl602_std.a(bl602_hbn.o)
 .text.HBN_Set_PIR_Threshold
                0x0000000000000000       0x12 /home/parag/bl_iot_sdk/customer_app/SWEMS/build_out/bl602_std/libbl602_std.a(bl602_hbn.o)
 .text.HBN_Get_PIR_Threshold
                0x0000000000000000        0xc /home/parag/bl_iot_sdk/customer_app/SWEMS/build_out/bl602_std/libbl602_std.a(bl602_hbn.o)
 .text.HBN_Set_PIR_Interval
                0x0000000000000000       0x12 /home/parag/bl_iot_sdk/customer_app/SWEMS/build_out/bl602_std/libbl602_std.a(bl602_hbn.o)
 .text.HBN_Get_PIR_Interval
                0x0000000000000000        0xc /home/parag/bl_iot_sdk/customer_app/SWEMS/build_out/bl602_std/libbl602_std.a(bl602_hbn.o)
 .text.HBN_Get_BOR_OUT_State
                0x0000000000000000        0xc /home/parag/bl_iot_sdk/customer_app/SWEMS/build_out/bl602_std/libbl602_std.a(bl602_hbn.o)
 .text.HBN_Set_BOR_Config
                0x0000000000000000       0x22 /home/parag/bl_iot_sdk/customer_app/SWEMS/build_out/bl602_std/libbl602_std.a(bl602_hbn.o)
 .text.HBN_Set_Ldo11_All_Vout
                0x0000000000000000       0x30 /home/parag/bl_iot_sdk/customer_app/SWEMS/build_out/bl602_std/libbl602_std.a(bl602_hbn.o)
 .text.HBN_Set_UART_CLK_Sel
                0x0000000000000000       0x12 /home/parag/bl_iot_sdk/customer_app/SWEMS/build_out/bl602_std/libbl602_std.a(bl602_hbn.o)
 .text.HBN_Set_XCLK_CLK_Sel
                0x0000000000000000       0x3c /home/parag/bl_iot_sdk/customer_app/SWEMS/build_out/bl602_std/libbl602_std.a(bl602_hbn.o)
 .sclock_rlt_code
                0x0000000000000000      0x14e /home/parag/bl_iot_sdk/customer_app/SWEMS/build_out/bl602_std/libbl602_std.a(bl602_hbn.o)
 .text.HBN_Set_HRAM_slp
                0x0000000000000000       0x14 /home/parag/bl_iot_sdk/customer_app/SWEMS/build_out/bl602_std/libbl602_std.a(bl602_hbn.o)
 .text.HBN_Set_HRAM_Ret
                0x0000000000000000       0x14 /home/parag/bl_iot_sdk/customer_app/SWEMS/build_out/bl602_std/libbl602_std.a(bl602_hbn.o)
 .text.HBN_Get_Status_Flag
                0x0000000000000000        0xa /home/parag/bl_iot_sdk/customer_app/SWEMS/build_out/bl602_std/libbl602_std.a(bl602_hbn.o)
 .text.HBN_Set_Status_Flag
                0x0000000000000000        0xc /home/parag/bl_iot_sdk/customer_app/SWEMS/build_out/bl602_std/libbl602_std.a(bl602_hbn.o)
 .text.HBN_Get_Wakeup_Addr
                0x0000000000000000        0xa /home/parag/bl_iot_sdk/customer_app/SWEMS/build_out/bl602_std/libbl602_std.a(bl602_hbn.o)
 .text.HBN_Set_Wakeup_Addr
                0x0000000000000000        0xc /home/parag/bl_iot_sdk/customer_app/SWEMS/build_out/bl602_std/libbl602_std.a(bl602_hbn.o)
 .text.HBN_Clear_RTC_Counter
                0x0000000000000000        0xe /home/parag/bl_iot_sdk/customer_app/SWEMS/build_out/bl602_std/libbl602_std.a(bl602_hbn.o)
 .text.HBN_Enable_RTC_Counter
                0x0000000000000000       0x10 /home/parag/bl_iot_sdk/customer_app/SWEMS/build_out/bl602_std/libbl602_std.a(bl602_hbn.o)
 .text.HBN_Set_RTC_Timer
                0x0000000000000000       0x24 /home/parag/bl_iot_sdk/customer_app/SWEMS/build_out/bl602_std/libbl602_std.a(bl602_hbn.o)
 .text.HBN_Clear_RTC_INT
                0x0000000000000000        0xe /home/parag/bl_iot_sdk/customer_app/SWEMS/build_out/bl602_std/libbl602_std.a(bl602_hbn.o)
 .text.HBN_GPIO_INT_Enable
                0x0000000000000000       0x10 /home/parag/bl_iot_sdk/customer_app/SWEMS/build_out/bl602_std/libbl602_std.a(bl602_hbn.o)
 .text.HBN_GPIO_INT_Disable
                0x0000000000000000        0xe /home/parag/bl_iot_sdk/customer_app/SWEMS/build_out/bl602_std/libbl602_std.a(bl602_hbn.o)
 .text.HBN_Get_INT_State
                0x0000000000000000       0x14 /home/parag/bl_iot_sdk/customer_app/SWEMS/build_out/bl602_std/libbl602_std.a(bl602_hbn.o)
 .text.HBN_Get_Pin_Wakeup_Mode
                0x0000000000000000        0xa /home/parag/bl_iot_sdk/customer_app/SWEMS/build_out/bl602_std/libbl602_std.a(bl602_hbn.o)
 .text.HBN_Clear_IRQ
                0x0000000000000000       0x1e /home/parag/bl_iot_sdk/customer_app/SWEMS/build_out/bl602_std/libbl602_std.a(bl602_hbn.o)
 .text.HBN_Aon_Pad_IeSmt_Cfg
                0x0000000000000000       0x14 /home/parag/bl_iot_sdk/customer_app/SWEMS/build_out/bl602_std/libbl602_std.a(bl602_hbn.o)
 .text.HBN_Enable_AComp0_IRQ
                0x0000000000000000       0x12 /home/parag/bl_iot_sdk/customer_app/SWEMS/build_out/bl602_std/libbl602_std.a(bl602_hbn.o)
 .text.HBN_Disable_AComp0_IRQ
                0x0000000000000000       0x14 /home/parag/bl_iot_sdk/customer_app/SWEMS/build_out/bl602_std/libbl602_std.a(bl602_hbn.o)
 .text.HBN_Enable_AComp1_IRQ
                0x0000000000000000       0x12 /home/parag/bl_iot_sdk/customer_app/SWEMS/build_out/bl602_std/libbl602_std.a(bl602_hbn.o)
 .text.HBN_Disable_AComp1_IRQ
                0x0000000000000000       0x14 /home/parag/bl_iot_sdk/customer_app/SWEMS/build_out/bl602_std/libbl602_std.a(bl602_hbn.o)
 .text.HBN_Enable_BOR_IRQ
                0x0000000000000000       0x12 /home/parag/bl_iot_sdk/customer_app/SWEMS/build_out/bl602_std/libbl602_std.a(bl602_hbn.o)
 .text.HBN_Disable_BOR_IRQ
                0x0000000000000000       0x14 /home/parag/bl_iot_sdk/customer_app/SWEMS/build_out/bl602_std/libbl602_std.a(bl602_hbn.o)
 .text.HBN_Out0_Callback_Install
                0x0000000000000000        0x4 /home/parag/bl_iot_sdk/customer_app/SWEMS/build_out/bl602_std/libbl602_std.a(bl602_hbn.o)
 .text.HBN_Out1_Callback_Install
                0x0000000000000000        0x4 /home/parag/bl_iot_sdk/customer_app/SWEMS/build_out/bl602_std/libbl602_std.a(bl602_hbn.o)
 .text.HBN_Set_BOR_Cfg
                0x0000000000000000       0x5e /home/parag/bl_iot_sdk/customer_app/SWEMS/build_out/bl602_std/libbl602_std.a(bl602_hbn.o)
 .text          0x0000000000000000        0x0 /home/parag/bl_iot_sdk/customer_app/SWEMS/build_out/bl602_std/libbl602_std.a(bl602_aon.o)
 .data          0x0000000000000000        0x0 /home/parag/bl_iot_sdk/customer_app/SWEMS/build_out/bl602_std/libbl602_std.a(bl602_aon.o)
 .bss           0x0000000000000000        0x0 /home/parag/bl_iot_sdk/customer_app/SWEMS/build_out/bl602_std/libbl602_std.a(bl602_aon.o)
 .sclock_rlt_code
                0x0000000000000000       0xf6 /home/parag/bl_iot_sdk/customer_app/SWEMS/build_out/bl602_std/libbl602_std.a(bl602_aon.o)
 .tcm_code      0x0000000000000000      0x1bc /home/parag/bl_iot_sdk/customer_app/SWEMS/build_out/bl602_std/libbl602_std.a(bl602_aon.o)
 .debug_info    0x0000000000000000      0xd8f /home/parag/bl_iot_sdk/customer_app/SWEMS/build_out/bl602_std/libbl602_std.a(bl602_aon.o)
 .debug_abbrev  0x0000000000000000      0x28d /home/parag/bl_iot_sdk/customer_app/SWEMS/build_out/bl602_std/libbl602_std.a(bl602_aon.o)
 .debug_loc     0x0000000000000000      0x3d5 /home/parag/bl_iot_sdk/customer_app/SWEMS/build_out/bl602_std/libbl602_std.a(bl602_aon.o)
 .debug_aranges
                0x0000000000000000       0xa0 /home/parag/bl_iot_sdk/customer_app/SWEMS/build_out/bl602_std/libbl602_std.a(bl602_aon.o)
 .debug_ranges  0x0000000000000000       0x90 /home/parag/bl_iot_sdk/customer_app/SWEMS/build_out/bl602_std/libbl602_std.a(bl602_aon.o)
 .debug_line    0x0000000000000000      0xae5 /home/parag/bl_iot_sdk/customer_app/SWEMS/build_out/bl602_std/libbl602_std.a(bl602_aon.o)
 .debug_str     0x0000000000000000      0x7ad /home/parag/bl_iot_sdk/customer_app/SWEMS/build_out/bl602_std/libbl602_std.a(bl602_aon.o)
 .comment       0x0000000000000000       0x29 /home/parag/bl_iot_sdk/customer_app/SWEMS/build_out/bl602_std/libbl602_std.a(bl602_aon.o)
 .debug_frame   0x0000000000000000      0x1b0 /home/parag/bl_iot_sdk/customer_app/SWEMS/build_out/bl602_std/libbl602_std.a(bl602_aon.o)
 .riscv.attributes
                0x0000000000000000       0x2b /home/parag/bl_iot_sdk/customer_app/SWEMS/build_out/bl602_std/libbl602_std.a(bl602_aon.o)
 .text          0x0000000000000000        0x0 /home/parag/bl_iot_sdk/customer_app/SWEMS/build_out/bl602_std/libbl602_std.a(bl602_pds.o)
 .data          0x0000000000000000        0x0 /home/parag/bl_iot_sdk/customer_app/SWEMS/build_out/bl602_std/libbl602_std.a(bl602_pds.o)
 .bss           0x0000000000000000        0x0 /home/parag/bl_iot_sdk/customer_app/SWEMS/build_out/bl602_std/libbl602_std.a(bl602_pds.o)
 .tcm_code      0x0000000000000000       0xc6 /home/parag/bl_iot_sdk/customer_app/SWEMS/build_out/bl602_std/libbl602_std.a(bl602_pds.o)
 .text.PDS_IntMask
                0x0000000000000000       0x24 /home/parag/bl_iot_sdk/customer_app/SWEMS/build_out/bl602_std/libbl602_std.a(bl602_pds.o)
 .text.PDS_Get_IntStatus
                0x0000000000000000       0x14 /home/parag/bl_iot_sdk/customer_app/SWEMS/build_out/bl602_std/libbl602_std.a(bl602_pds.o)
 .text.PDS_IntClear
                0x0000000000000000       0x20 /home/parag/bl_iot_sdk/customer_app/SWEMS/build_out/bl602_std/libbl602_std.a(bl602_pds.o)
 .text.PDS_Get_PdsPllStstus
                0x0000000000000000        0xc /home/parag/bl_iot_sdk/customer_app/SWEMS/build_out/bl602_std/libbl602_std.a(bl602_pds.o)
 .text.PDS_Get_PdsRfStstus
                0x0000000000000000        0xc /home/parag/bl_iot_sdk/customer_app/SWEMS/build_out/bl602_std/libbl602_std.a(bl602_pds.o)
 .text.PDS_Get_PdsStstus
                0x0000000000000000        0xa /home/parag/bl_iot_sdk/customer_app/SWEMS/build_out/bl602_std/libbl602_std.a(bl602_pds.o)
 .text.PDS_Int_Callback_Install
                0x0000000000000000        0x4 /home/parag/bl_iot_sdk/customer_app/SWEMS/build_out/bl602_std/libbl602_std.a(bl602_pds.o)
 .sclock_rlt_code
                0x0000000000000000      0x2c4 /home/parag/bl_iot_sdk/customer_app/SWEMS/build_out/bl602_std/libbl602_std.a(bl602_pds.o)
 .rodata        0x0000000000000000       0x14 /home/parag/bl_iot_sdk/customer_app/SWEMS/build_out/bl602_std/libbl602_std.a(bl602_pds.o)
 .debug_info    0x0000000000000000     0x17a0 /home/parag/bl_iot_sdk/customer_app/SWEMS/build_out/bl602_std/libbl602_std.a(bl602_pds.o)
 .debug_abbrev  0x0000000000000000      0x34d /home/parag/bl_iot_sdk/customer_app/SWEMS/build_out/bl602_std/libbl602_std.a(bl602_pds.o)
 .debug_loc     0x0000000000000000      0x5de /home/parag/bl_iot_sdk/customer_app/SWEMS/build_out/bl602_std/libbl602_std.a(bl602_pds.o)
 .debug_aranges
                0x0000000000000000       0xc0 /home/parag/bl_iot_sdk/customer_app/SWEMS/build_out/bl602_std/libbl602_std.a(bl602_pds.o)
 .debug_ranges  0x0000000000000000       0xb0 /home/parag/bl_iot_sdk/customer_app/SWEMS/build_out/bl602_std/libbl602_std.a(bl602_pds.o)
 .debug_line    0x0000000000000000     0x1012 /home/parag/bl_iot_sdk/customer_app/SWEMS/build_out/bl602_std/libbl602_std.a(bl602_pds.o)
 .debug_str     0x0000000000000000     0x10ea /home/parag/bl_iot_sdk/customer_app/SWEMS/build_out/bl602_std/libbl602_std.a(bl602_pds.o)
 .comment       0x0000000000000000       0x29 /home/parag/bl_iot_sdk/customer_app/SWEMS/build_out/bl602_std/libbl602_std.a(bl602_pds.o)
 .debug_frame   0x0000000000000000      0x198 /home/parag/bl_iot_sdk/customer_app/SWEMS/build_out/bl602_std/libbl602_std.a(bl602_pds.o)
 .riscv.attributes
                0x0000000000000000       0x2b /home/parag/bl_iot_sdk/customer_app/SWEMS/build_out/bl602_std/libbl602_std.a(bl602_pds.o)
 .text          0x0000000000000000        0x0 /home/parag/bl_iot_sdk/customer_app/SWEMS/build_out/bl602_std/libbl602_std.a(bl602_l1c.o)
 .data          0x0000000000000000        0x0 /home/parag/bl_iot_sdk/customer_app/SWEMS/build_out/bl602_std/libbl602_std.a(bl602_l1c.o)
 .bss           0x0000000000000000        0x0 /home/parag/bl_iot_sdk/customer_app/SWEMS/build_out/bl602_std/libbl602_std.a(bl602_l1c.o)
 .tcm_code      0x0000000000000000       0x60 /home/parag/bl_iot_sdk/customer_app/SWEMS/build_out/bl602_std/libbl602_std.a(bl602_l1c.o)
 .text.L1C_BMX_Init
                0x0000000000000000       0x3a /home/parag/bl_iot_sdk/customer_app/SWEMS/build_out/bl602_std/libbl602_std.a(bl602_l1c.o)
 .text.L1C_BMX_Addr_Monitor_Enable
                0x0000000000000000       0x12 /home/parag/bl_iot_sdk/customer_app/SWEMS/build_out/bl602_std/libbl602_std.a(bl602_l1c.o)
 .text.L1C_BMX_Addr_Monitor_Disable
                0x0000000000000000       0x14 /home/parag/bl_iot_sdk/customer_app/SWEMS/build_out/bl602_std/libbl602_std.a(bl602_l1c.o)
 .text.L1C_BMX_BusErrResponse_Enable
                0x0000000000000000       0x10 /home/parag/bl_iot_sdk/customer_app/SWEMS/build_out/bl602_std/libbl602_std.a(bl602_l1c.o)
 .text.L1C_BMX_BusErrResponse_Disable
                0x0000000000000000       0x12 /home/parag/bl_iot_sdk/customer_app/SWEMS/build_out/bl602_std/libbl602_std.a(bl602_l1c.o)
 .text.L1C_BMX_Get_Status
                0x0000000000000000       0x16 /home/parag/bl_iot_sdk/customer_app/SWEMS/build_out/bl602_std/libbl602_std.a(bl602_l1c.o)
 .text.L1C_BMX_Get_Err_Addr
                0x0000000000000000        0xa /home/parag/bl_iot_sdk/customer_app/SWEMS/build_out/bl602_std/libbl602_std.a(bl602_l1c.o)
 .text.L1C_BMX_ERR_INT_Callback_Install
                0x0000000000000000        0x4 /home/parag/bl_iot_sdk/customer_app/SWEMS/build_out/bl602_std/libbl602_std.a(bl602_l1c.o)
 .text.L1C_BMX_TIMEOUT_INT_Callback_Install
                0x0000000000000000        0x4 /home/parag/bl_iot_sdk/customer_app/SWEMS/build_out/bl602_std/libbl602_std.a(bl602_l1c.o)
 .debug_info    0x0000000000000000      0xd69 /home/parag/bl_iot_sdk/customer_app/SWEMS/build_out/bl602_std/libbl602_std.a(bl602_l1c.o)
 .debug_abbrev  0x0000000000000000      0x2c8 /home/parag/bl_iot_sdk/customer_app/SWEMS/build_out/bl602_std/libbl602_std.a(bl602_l1c.o)
 .debug_loc     0x0000000000000000      0x285 /home/parag/bl_iot_sdk/customer_app/SWEMS/build_out/bl602_std/libbl602_std.a(bl602_l1c.o)
 .debug_aranges
                0x0000000000000000       0x78 /home/parag/bl_iot_sdk/customer_app/SWEMS/build_out/bl602_std/libbl602_std.a(bl602_l1c.o)
 .debug_ranges  0x0000000000000000       0x68 /home/parag/bl_iot_sdk/customer_app/SWEMS/build_out/bl602_std/libbl602_std.a(bl602_l1c.o)
 .debug_line    0x0000000000000000      0x764 /home/parag/bl_iot_sdk/customer_app/SWEMS/build_out/bl602_std/libbl602_std.a(bl602_l1c.o)
 .debug_str     0x0000000000000000      0x91c /home/parag/bl_iot_sdk/customer_app/SWEMS/build_out/bl602_std/libbl602_std.a(bl602_l1c.o)
 .comment       0x0000000000000000       0x29 /home/parag/bl_iot_sdk/customer_app/SWEMS/build_out/bl602_std/libbl602_std.a(bl602_l1c.o)
 .debug_frame   0x0000000000000000       0xd0 /home/parag/bl_iot_sdk/customer_app/SWEMS/build_out/bl602_std/libbl602_std.a(bl602_l1c.o)
 .riscv.attributes
                0x0000000000000000       0x2b /home/parag/bl_iot_sdk/customer_app/SWEMS/build_out/bl602_std/libbl602_std.a(bl602_l1c.o)
 .text          0x0000000000000000        0x0 /home/parag/bl_iot_sdk/customer_app/SWEMS/build_out/bl602_std/libbl602_std.a(bl602_ef_ctrl.o)
 .data          0x0000000000000000        0x0 /home/parag/bl_iot_sdk/customer_app/SWEMS/build_out/bl602_std/libbl602_std.a(bl602_ef_ctrl.o)
 .bss           0x0000000000000000        0x0 /home/parag/bl_iot_sdk/customer_app/SWEMS/build_out/bl602_std/libbl602_std.a(bl602_ef_ctrl.o)
 .text.EF_Ctrl_Get_Byte_Zero_Cnt
                0x0000000000000000       0x1a /home/parag/bl_iot_sdk/customer_app/SWEMS/build_out/bl602_std/libbl602_std.a(bl602_ef_ctrl.o)
 .tcm_code      0x0000000000000000      0x134 /home/parag/bl_iot_sdk/customer_app/SWEMS/build_out/bl602_std/libbl602_std.a(bl602_ef_ctrl.o)
 .text.EF_Ctrl_Write_Dbg_Pwd
                0x0000000000000000       0x34 /home/parag/bl_iot_sdk/customer_app/SWEMS/build_out/bl602_std/libbl602_std.a(bl602_ef_ctrl.o)
 .text.EF_Ctrl_Readlock_Dbg_Pwd
                0x0000000000000000       0x32 /home/parag/bl_iot_sdk/customer_app/SWEMS/build_out/bl602_std/libbl602_std.a(bl602_ef_ctrl.o)
 .text.EF_Ctrl_Writelock_Dbg_Pwd
                0x0000000000000000       0x30 /home/parag/bl_iot_sdk/customer_app/SWEMS/build_out/bl602_std/libbl602_std.a(bl602_ef_ctrl.o)
 .text.EF_Ctrl_Write_Secure_Cfg
                0x0000000000000000       0x3c /home/parag/bl_iot_sdk/customer_app/SWEMS/build_out/bl602_std/libbl602_std.a(bl602_ef_ctrl.o)
 .text.EF_Ctrl_Write_Secure_Boot
                0x0000000000000000       0x52 /home/parag/bl_iot_sdk/customer_app/SWEMS/build_out/bl602_std/libbl602_std.a(bl602_ef_ctrl.o)
 .sclock_rlt_code
                0x0000000000000000      0x16e /home/parag/bl_iot_sdk/customer_app/SWEMS/build_out/bl602_std/libbl602_std.a(bl602_ef_ctrl.o)
 .text.EF_Ctrl_Write_Ana_Trim
                0x0000000000000000       0x34 /home/parag/bl_iot_sdk/customer_app/SWEMS/build_out/bl602_std/libbl602_std.a(bl602_ef_ctrl.o)
 .text.EF_Ctrl_Write_Sw_Usage
                0x0000000000000000       0x34 /home/parag/bl_iot_sdk/customer_app/SWEMS/build_out/bl602_std/libbl602_std.a(bl602_ef_ctrl.o)
 .text.EF_Ctrl_Writelock_Sw_Usage
                0x0000000000000000       0x3c /home/parag/bl_iot_sdk/customer_app/SWEMS/build_out/bl602_std/libbl602_std.a(bl602_ef_ctrl.o)
 .text.EF_Ctrl_Write_MAC_Address
                0x0000000000000000       0x58 /home/parag/bl_iot_sdk/customer_app/SWEMS/build_out/bl602_std/libbl602_std.a(bl602_ef_ctrl.o)
 .text.EF_Ctrl_Writelock_MAC_Address
                0x0000000000000000       0x32 /home/parag/bl_iot_sdk/customer_app/SWEMS/build_out/bl602_std/libbl602_std.a(bl602_ef_ctrl.o)
 .text.EF_Ctrl_Is_All_Bits_Zero
                0x0000000000000000       0x1e /home/parag/bl_iot_sdk/customer_app/SWEMS/build_out/bl602_std/libbl602_std.a(bl602_ef_ctrl.o)
 .text.EF_Ctrl_Write_MAC_Address_Opt
                0x0000000000000000      0x122 /home/parag/bl_iot_sdk/customer_app/SWEMS/build_out/bl602_std/libbl602_std.a(bl602_ef_ctrl.o)
 .text.EF_Ctrl_Write_PowerOffset_Opt
                0x0000000000000000       0xe4 /home/parag/bl_iot_sdk/customer_app/SWEMS/build_out/bl602_std/libbl602_std.a(bl602_ef_ctrl.o)
 .text.EF_Ctrl_Write_AES_Key
                0x0000000000000000       0x54 /home/parag/bl_iot_sdk/customer_app/SWEMS/build_out/bl602_std/libbl602_std.a(bl602_ef_ctrl.o)
 .text.EF_Ctrl_Writelock_AES_Key
                0x0000000000000000       0x64 /home/parag/bl_iot_sdk/customer_app/SWEMS/build_out/bl602_std/libbl602_std.a(bl602_ef_ctrl.o)
 .text.EF_Ctrl_Readlock_AES_Key
                0x0000000000000000       0x4c /home/parag/bl_iot_sdk/customer_app/SWEMS/build_out/bl602_std/libbl602_std.a(bl602_ef_ctrl.o)
 .text.EF_Ctrl_Program_Direct_R0
                0x0000000000000000       0x40 /home/parag/bl_iot_sdk/customer_app/SWEMS/build_out/bl602_std/libbl602_std.a(bl602_ef_ctrl.o)
 .text.EF_Ctrl_Write_R0
                0x0000000000000000       0x38 /home/parag/bl_iot_sdk/customer_app/SWEMS/build_out/bl602_std/libbl602_std.a(bl602_ef_ctrl.o)
 .text.EF_Ctrl_Read_R0
                0x0000000000000000       0x14 /home/parag/bl_iot_sdk/customer_app/SWEMS/build_out/bl602_std/libbl602_std.a(bl602_ef_ctrl.o)
 .text.EF_Ctrl_Read_Dbg_Pwd
                0x0000000000000000       0x26 /home/parag/bl_iot_sdk/customer_app/SWEMS/build_out/bl602_std/libbl602_std.a(bl602_ef_ctrl.o)
 .text.EF_Ctrl_Read_Secure_Cfg
                0x0000000000000000       0x40 /home/parag/bl_iot_sdk/customer_app/SWEMS/build_out/bl602_std/libbl602_std.a(bl602_ef_ctrl.o)
 .text.EF_Ctrl_Read_Secure_Boot
                0x0000000000000000       0x3c /home/parag/bl_iot_sdk/customer_app/SWEMS/build_out/bl602_std/libbl602_std.a(bl602_ef_ctrl.o)
 .text.EF_Ctrl_Get_Trim_Enable
                0x0000000000000000       0x1c /home/parag/bl_iot_sdk/customer_app/SWEMS/build_out/bl602_std/libbl602_std.a(bl602_ef_ctrl.o)
 .text.EF_Ctrl_Read_Ana_Trim
                0x0000000000000000       0x2c /home/parag/bl_iot_sdk/customer_app/SWEMS/build_out/bl602_std/libbl602_std.a(bl602_ef_ctrl.o)
 .text.EF_Ctrl_Read_Sw_Usage
                0x0000000000000000       0x2c /home/parag/bl_iot_sdk/customer_app/SWEMS/build_out/bl602_std/libbl602_std.a(bl602_ef_ctrl.o)
 .text.EF_Ctrl_Read_MAC_Address
                0x0000000000000000       0xa4 /home/parag/bl_iot_sdk/customer_app/SWEMS/build_out/bl602_std/libbl602_std.a(bl602_ef_ctrl.o)
 .text.EF_Ctrl_Read_Chip_ID
                0x0000000000000000       0x10 /home/parag/bl_iot_sdk/customer_app/SWEMS/build_out/bl602_std/libbl602_std.a(bl602_ef_ctrl.o)
 .text.EF_Ctrl_Read_MAC_Address_Raw
                0x0000000000000000       0x4c /home/parag/bl_iot_sdk/customer_app/SWEMS/build_out/bl602_std/libbl602_std.a(bl602_ef_ctrl.o)
 .text.EF_Ctrl_Is_MAC_Address_Slot_Empty
                0x0000000000000000       0x7c /home/parag/bl_iot_sdk/customer_app/SWEMS/build_out/bl602_std/libbl602_std.a(bl602_ef_ctrl.o)
 .text.EF_Ctrl_Read_MAC_Address_Opt
                0x0000000000000000       0xf2 /home/parag/bl_iot_sdk/customer_app/SWEMS/build_out/bl602_std/libbl602_std.a(bl602_ef_ctrl.o)
 .text.EF_Ctrl_Read_Device_Info
                0x0000000000000000       0x1e /home/parag/bl_iot_sdk/customer_app/SWEMS/build_out/bl602_std/libbl602_std.a(bl602_ef_ctrl.o)
 .text.EF_Ctrl_Is_CapCode_Slot_Empty
                0x0000000000000000       0x58 /home/parag/bl_iot_sdk/customer_app/SWEMS/build_out/bl602_std/libbl602_std.a(bl602_ef_ctrl.o)
 .text.EF_Ctrl_Write_CapCode_Opt
                0x0000000000000000       0xb6 /home/parag/bl_iot_sdk/customer_app/SWEMS/build_out/bl602_std/libbl602_std.a(bl602_ef_ctrl.o)
 .text.EF_Ctrl_Read_CapCode_Opt
                0x0000000000000000       0x8c /home/parag/bl_iot_sdk/customer_app/SWEMS/build_out/bl602_std/libbl602_std.a(bl602_ef_ctrl.o)
 .text.EF_Ctrl_Is_PowerOffset_Slot_Empty
                0x0000000000000000       0x78 /home/parag/bl_iot_sdk/customer_app/SWEMS/build_out/bl602_std/libbl602_std.a(bl602_ef_ctrl.o)
 .text.EF_Ctrl_Read_PowerOffset_Opt
                0x0000000000000000       0xca /home/parag/bl_iot_sdk/customer_app/SWEMS/build_out/bl602_std/libbl602_std.a(bl602_ef_ctrl.o)
 .text.EF_Ctrl_Read_AES_Key
                0x0000000000000000       0x38 /home/parag/bl_iot_sdk/customer_app/SWEMS/build_out/bl602_std/libbl602_std.a(bl602_ef_ctrl.o)
 .text.EF_Ctrl_Read_Direct_R0
                0x0000000000000000       0x2e /home/parag/bl_iot_sdk/customer_app/SWEMS/build_out/bl602_std/libbl602_std.a(bl602_ef_ctrl.o)
 .text.EF_Ctrl_Crc_Enable
                0x0000000000000000       0x22 /home/parag/bl_iot_sdk/customer_app/SWEMS/build_out/bl602_std/libbl602_std.a(bl602_ef_ctrl.o)
 .text.EF_Ctrl_Crc_Is_Busy
                0x0000000000000000        0xc /home/parag/bl_iot_sdk/customer_app/SWEMS/build_out/bl602_std/libbl602_std.a(bl602_ef_ctrl.o)
 .text.EF_Ctrl_Crc_Set_Golden
                0x0000000000000000        0xa /home/parag/bl_iot_sdk/customer_app/SWEMS/build_out/bl602_std/libbl602_std.a(bl602_ef_ctrl.o)
 .text.EF_Ctrl_Crc_Result
                0x0000000000000000        0xe /home/parag/bl_iot_sdk/customer_app/SWEMS/build_out/bl602_std/libbl602_std.a(bl602_ef_ctrl.o)
 .debug_info    0x0000000000000000     0x2549 /home/parag/bl_iot_sdk/customer_app/SWEMS/build_out/bl602_std/libbl602_std.a(bl602_ef_ctrl.o)
 .debug_abbrev  0x0000000000000000      0x49d /home/parag/bl_iot_sdk/customer_app/SWEMS/build_out/bl602_std/libbl602_std.a(bl602_ef_ctrl.o)
 .debug_loc     0x0000000000000000     0x2137 /home/parag/bl_iot_sdk/customer_app/SWEMS/build_out/bl602_std/libbl602_std.a(bl602_ef_ctrl.o)
 .debug_aranges
                0x0000000000000000      0x1c8 /home/parag/bl_iot_sdk/customer_app/SWEMS/build_out/bl602_std/libbl602_std.a(bl602_ef_ctrl.o)
 .debug_ranges  0x0000000000000000      0x248 /home/parag/bl_iot_sdk/customer_app/SWEMS/build_out/bl602_std/libbl602_std.a(bl602_ef_ctrl.o)
 .debug_line    0x0000000000000000     0x308d /home/parag/bl_iot_sdk/customer_app/SWEMS/build_out/bl602_std/libbl602_std.a(bl602_ef_ctrl.o)
 .debug_str     0x0000000000000000     0x101b /home/parag/bl_iot_sdk/customer_app/SWEMS/build_out/bl602_std/libbl602_std.a(bl602_ef_ctrl.o)
 .comment       0x0000000000000000       0x29 /home/parag/bl_iot_sdk/customer_app/SWEMS/build_out/bl602_std/libbl602_std.a(bl602_ef_ctrl.o)
 .debug_frame   0x0000000000000000      0x704 /home/parag/bl_iot_sdk/customer_app/SWEMS/build_out/bl602_std/libbl602_std.a(bl602_ef_ctrl.o)
 .riscv.attributes
                0x0000000000000000       0x2b /home/parag/bl_iot_sdk/customer_app/SWEMS/build_out/bl602_std/libbl602_std.a(bl602_ef_ctrl.o)
 .text          0x0000000000000000        0x0 /home/parag/bl_iot_sdk/customer_app/SWEMS/build_out/bl602_std/libbl602_std.a(bl602_romapi.o)
 .data          0x0000000000000000        0x0 /home/parag/bl_iot_sdk/customer_app/SWEMS/build_out/bl602_std/libbl602_std.a(bl602_romapi.o)
 .bss           0x0000000000000000        0x0 /home/parag/bl_iot_sdk/customer_app/SWEMS/build_out/bl602_std/libbl602_std.a(bl602_romapi.o)
 .sclock_rlt_code
                0x0000000000000000      0x154 /home/parag/bl_iot_sdk/customer_app/SWEMS/build_out/bl602_std/libbl602_std.a(bl602_romapi.o)
 .text          0x0000000000000000        0x0 /home/parag/bl_iot_sdk/customer_app/SWEMS/build_out/bltime/libbltime.a(bl_sys_time.o)
 .data          0x0000000000000000        0x0 /home/parag/bl_iot_sdk/customer_app/SWEMS/build_out/bltime/libbltime.a(bl_sys_time.o)
 .bss           0x0000000000000000        0x0 /home/parag/bl_iot_sdk/customer_app/SWEMS/build_out/bltime/libbltime.a(bl_sys_time.o)
 .text.bl_sys_time_update
                0x0000000000000000       0x38 /home/parag/bl_iot_sdk/customer_app/SWEMS/build_out/bltime/libbltime.a(bl_sys_time.o)
 .text.bl_sys_time_get
                0x0000000000000000       0x58 /home/parag/bl_iot_sdk/customer_app/SWEMS/build_out/bltime/libbltime.a(bl_sys_time.o)
 .text.bl_sys_time_sync_init
                0x0000000000000000       0x44 /home/parag/bl_iot_sdk/customer_app/SWEMS/build_out/bltime/libbltime.a(bl_sys_time.o)
 .text.bl_sys_time_sync
                0x0000000000000000       0x26 /home/parag/bl_iot_sdk/customer_app/SWEMS/build_out/bltime/libbltime.a(bl_sys_time.o)
 .sbss.epoch_time
                0x0000000000000000        0x8 /home/parag/bl_iot_sdk/customer_app/SWEMS/build_out/bltime/libbltime.a(bl_sys_time.o)
 .sbss.time_synced
                0x0000000000000000        0x8 /home/parag/bl_iot_sdk/customer_app/SWEMS/build_out/bltime/libbltime.a(bl_sys_time.o)
 .text          0x0000000000000000        0x0 /home/parag/bl_iot_sdk/customer_app/SWEMS/build_out/freertos_riscv_ram/libfreertos_riscv_ram.a(misaligned_ldst.o)
 .data          0x0000000000000000        0x0 /home/parag/bl_iot_sdk/customer_app/SWEMS/build_out/freertos_riscv_ram/libfreertos_riscv_ram.a(misaligned_ldst.o)
 .bss           0x0000000000000000        0x0 /home/parag/bl_iot_sdk/customer_app/SWEMS/build_out/freertos_riscv_ram/libfreertos_riscv_ram.a(misaligned_ldst.o)
 .text.truly_illegal_insn
                0x0000000000000000        0x4 /home/parag/bl_iot_sdk/customer_app/SWEMS/build_out/freertos_riscv_ram/libfreertos_riscv_ram.a(misaligned_ldst.o)
 .data          0x0000000000000000        0x0 /home/parag/bl_iot_sdk/customer_app/SWEMS/build_out/freertos_riscv_ram/libfreertos_riscv_ram.a(fp_asm.o)
 .bss           0x0000000000000000        0x0 /home/parag/bl_iot_sdk/customer_app/SWEMS/build_out/freertos_riscv_ram/libfreertos_riscv_ram.a(fp_asm.o)
 .text          0x0000000000000000        0x0 /home/parag/bl_iot_sdk/customer_app/SWEMS/build_out/freertos_riscv_ram/libfreertos_riscv_ram.a(panic_c.o)
 .data          0x0000000000000000        0x0 /home/parag/bl_iot_sdk/customer_app/SWEMS/build_out/freertos_riscv_ram/libfreertos_riscv_ram.a(panic_c.o)
 .bss           0x0000000000000000        0x0 /home/parag/bl_iot_sdk/customer_app/SWEMS/build_out/freertos_riscv_ram/libfreertos_riscv_ram.a(panic_c.o)
 .text          0x0000000000000000        0x0 /home/parag/bl_iot_sdk/customer_app/SWEMS/build_out/hal_drv/libhal_drv.a(bl_uart.o)
 .data          0x0000000000000000        0x0 /home/parag/bl_iot_sdk/customer_app/SWEMS/build_out/hal_drv/libhal_drv.a(bl_uart.o)
 .bss           0x0000000000000000        0x0 /home/parag/bl_iot_sdk/customer_app/SWEMS/build_out/hal_drv/libhal_drv.a(bl_uart.o)
 .text.uart_generic_notify_handler
                0x0000000000000000       0xf2 /home/parag/bl_iot_sdk/customer_app/SWEMS/build_out/hal_drv/libhal_drv.a(bl_uart.o)
 .text.UART0_IRQHandler
                0x0000000000000000        0xa /home/parag/bl_iot_sdk/customer_app/SWEMS/build_out/hal_drv/libhal_drv.a(bl_uart.o)
 .text.UART1_IRQHandler
                0x0000000000000000        0xa /home/parag/bl_iot_sdk/customer_app/SWEMS/build_out/hal_drv/libhal_drv.a(bl_uart.o)
 .text.bl_uart_init
                0x0000000000000000      0x118 /home/parag/bl_iot_sdk/customer_app/SWEMS/build_out/hal_drv/libhal_drv.a(bl_uart.o)
 .text.bl_uart_data_recv
                0x0000000000000000       0x34 /home/parag/bl_iot_sdk/customer_app/SWEMS/build_out/hal_drv/libhal_drv.a(bl_uart.o)
 .text.bl_uart_int_rx_enable
                0x0000000000000000       0x46 /home/parag/bl_iot_sdk/customer_app/SWEMS/build_out/hal_drv/libhal_drv.a(bl_uart.o)
 .text.bl_uart_int_rx_disable
                0x0000000000000000       0x3a /home/parag/bl_iot_sdk/customer_app/SWEMS/build_out/hal_drv/libhal_drv.a(bl_uart.o)
 .text.bl_uart_int_tx_enable
                0x0000000000000000       0x18 /home/parag/bl_iot_sdk/customer_app/SWEMS/build_out/hal_drv/libhal_drv.a(bl_uart.o)
 .text.bl_uart_int_tx_disable
                0x0000000000000000       0x18 /home/parag/bl_iot_sdk/customer_app/SWEMS/build_out/hal_drv/libhal_drv.a(bl_uart.o)
 .text.bl_uart_flush
                0x0000000000000000       0x28 /home/parag/bl_iot_sdk/customer_app/SWEMS/build_out/hal_drv/libhal_drv.a(bl_uart.o)
 .text.bl_uart_getdefconfig
                0x0000000000000000        0x8 /home/parag/bl_iot_sdk/customer_app/SWEMS/build_out/hal_drv/libhal_drv.a(bl_uart.o)
 .text.bl_uart_setconfig
                0x0000000000000000       0x66 /home/parag/bl_iot_sdk/customer_app/SWEMS/build_out/hal_drv/libhal_drv.a(bl_uart.o)
 .text.bl_uart_setbaud
                0x0000000000000000        0xa /home/parag/bl_iot_sdk/customer_app/SWEMS/build_out/hal_drv/libhal_drv.a(bl_uart.o)
 .text.bl_uart_int_enable
                0x0000000000000000       0x76 /home/parag/bl_iot_sdk/customer_app/SWEMS/build_out/hal_drv/libhal_drv.a(bl_uart.o)
 .text.bl_uart_int_disable
                0x0000000000000000       0x76 /home/parag/bl_iot_sdk/customer_app/SWEMS/build_out/hal_drv/libhal_drv.a(bl_uart.o)
 .text.bl_uart_int_rx_notify_register
                0x0000000000000000       0x20 /home/parag/bl_iot_sdk/customer_app/SWEMS/build_out/hal_drv/libhal_drv.a(bl_uart.o)
 .text.bl_uart_int_tx_notify_register
                0x0000000000000000       0x20 /home/parag/bl_iot_sdk/customer_app/SWEMS/build_out/hal_drv/libhal_drv.a(bl_uart.o)
 .text.bl_uart_int_rx_notify_unregister
                0x0000000000000000       0x24 /home/parag/bl_iot_sdk/customer_app/SWEMS/build_out/hal_drv/libhal_drv.a(bl_uart.o)
 .text.bl_uart_int_tx_notify_unregister
                0x0000000000000000       0x24 /home/parag/bl_iot_sdk/customer_app/SWEMS/build_out/hal_drv/libhal_drv.a(bl_uart.o)
 .rodata        0x0000000000000000       0x20 /home/parag/bl_iot_sdk/customer_app/SWEMS/build_out/hal_drv/libhal_drv.a(bl_uart.o)
 .bss.g_uart_notify_arg
                0x0000000000000000       0x20 /home/parag/bl_iot_sdk/customer_app/SWEMS/build_out/hal_drv/libhal_drv.a(bl_uart.o)
 .sbss.uart_clk_init.7788
                0x0000000000000000        0x1 /home/parag/bl_iot_sdk/customer_app/SWEMS/build_out/hal_drv/libhal_drv.a(bl_uart.o)
 .srodata       0x0000000000000000        0x4 /home/parag/bl_iot_sdk/customer_app/SWEMS/build_out/hal_drv/libhal_drv.a(bl_uart.o)
 .text          0x0000000000000000        0x0 /home/parag/bl_iot_sdk/customer_app/SWEMS/build_out/hal_drv/libhal_drv.a(bl_sys.o)
 .data          0x0000000000000000        0x0 /home/parag/bl_iot_sdk/customer_app/SWEMS/build_out/hal_drv/libhal_drv.a(bl_sys.o)
 .bss           0x0000000000000000        0x0 /home/parag/bl_iot_sdk/customer_app/SWEMS/build_out/hal_drv/libhal_drv.a(bl_sys.o)
 .text.bl_sys_logall_enable
                0x0000000000000000        0xe /home/parag/bl_iot_sdk/customer_app/SWEMS/build_out/hal_drv/libhal_drv.a(bl_sys.o)
 .text.bl_sys_logall_disable
                0x0000000000000000        0xc /home/parag/bl_iot_sdk/customer_app/SWEMS/build_out/hal_drv/libhal_drv.a(bl_sys.o)
 .text.bl_sys_mfg_config
                0x0000000000000000       0x12 /home/parag/bl_iot_sdk/customer_app/SWEMS/build_out/hal_drv/libhal_drv.a(bl_sys.o)
 .text.bl_sys_reset_por
                0x0000000000000000       0x12 /home/parag/bl_iot_sdk/customer_app/SWEMS/build_out/hal_drv/libhal_drv.a(bl_sys.o)
 .text.bl_sys_reset_system
                0x0000000000000000       0x12 /home/parag/bl_iot_sdk/customer_app/SWEMS/build_out/hal_drv/libhal_drv.a(bl_sys.o)
 .text.bl_sys_isxipaddr
                0x0000000000000000       0x18 /home/parag/bl_iot_sdk/customer_app/SWEMS/build_out/hal_drv/libhal_drv.a(bl_sys.o)
 .text.bl_sys_em_config
                0x0000000000000000       0x2e /home/parag/bl_iot_sdk/customer_app/SWEMS/build_out/hal_drv/libhal_drv.a(bl_sys.o)
 .text.bl_sys_early_init
                0x0000000000000000       0x22 /home/parag/bl_iot_sdk/customer_app/SWEMS/build_out/hal_drv/libhal_drv.a(bl_sys.o)
 .text.bl_sys_init
                0x0000000000000000       0x14 /home/parag/bl_iot_sdk/customer_app/SWEMS/build_out/hal_drv/libhal_drv.a(bl_sys.o)
 .text          0x0000000000000000        0x0 /home/parag/bl_iot_sdk/customer_app/SWEMS/build_out/hal_drv/libhal_drv.a(bl_rtc.o)
 .data          0x0000000000000000        0x0 /home/parag/bl_iot_sdk/customer_app/SWEMS/build_out/hal_drv/libhal_drv.a(bl_rtc.o)
 .bss           0x0000000000000000        0x0 /home/parag/bl_iot_sdk/customer_app/SWEMS/build_out/hal_drv/libhal_drv.a(bl_rtc.o)
 .text.bl_rtc_init
                0x0000000000000000       0x22 /home/parag/bl_iot_sdk/customer_app/SWEMS/build_out/hal_drv/libhal_drv.a(bl_rtc.o)
 .text          0x0000000000000000        0x0 /home/parag/bl_iot_sdk/customer_app/SWEMS/build_out/bl602_std/libbl602_std.a(bl602_uart.o)
 .data          0x0000000000000000        0x0 /home/parag/bl_iot_sdk/customer_app/SWEMS/build_out/bl602_std/libbl602_std.a(bl602_uart.o)
 .bss           0x0000000000000000        0x0 /home/parag/bl_iot_sdk/customer_app/SWEMS/build_out/bl602_std/libbl602_std.a(bl602_uart.o)
 .text.UART_Init
                0x0000000000000000       0xf4 /home/parag/bl_iot_sdk/customer_app/SWEMS/build_out/bl602_std/libbl602_std.a(bl602_uart.o)
 .text.UART_DeInit
                0x0000000000000000       0x22 /home/parag/bl_iot_sdk/customer_app/SWEMS/build_out/bl602_std/libbl602_std.a(bl602_uart.o)
 .text.UART_FifoConfig
                0x0000000000000000       0x6a /home/parag/bl_iot_sdk/customer_app/SWEMS/build_out/bl602_std/libbl602_std.a(bl602_uart.o)
 .text.UART_IrConfig
                0x0000000000000000       0x76 /home/parag/bl_iot_sdk/customer_app/SWEMS/build_out/bl602_std/libbl602_std.a(bl602_uart.o)
 .text.UART_Enable
                0x0000000000000000       0x34 /home/parag/bl_iot_sdk/customer_app/SWEMS/build_out/bl602_std/libbl602_std.a(bl602_uart.o)
 .text.UART_Disable
                0x0000000000000000       0x30 /home/parag/bl_iot_sdk/customer_app/SWEMS/build_out/bl602_std/libbl602_std.a(bl602_uart.o)
 .text.UART_SetTxDataLength
                0x0000000000000000       0x20 /home/parag/bl_iot_sdk/customer_app/SWEMS/build_out/bl602_std/libbl602_std.a(bl602_uart.o)
 .text.UART_SetRxDataLength
                0x0000000000000000       0x20 /home/parag/bl_iot_sdk/customer_app/SWEMS/build_out/bl602_std/libbl602_std.a(bl602_uart.o)
 .text.UART_SetRxTimeoutValue
                0x0000000000000000       0x1e /home/parag/bl_iot_sdk/customer_app/SWEMS/build_out/bl602_std/libbl602_std.a(bl602_uart.o)
 .text.UART_SetDeglitchCount
                0x0000000000000000       0x22 /home/parag/bl_iot_sdk/customer_app/SWEMS/build_out/bl602_std/libbl602_std.a(bl602_uart.o)
 .text.UART_SetRtsValue
                0x0000000000000000       0x1a /home/parag/bl_iot_sdk/customer_app/SWEMS/build_out/bl602_std/libbl602_std.a(bl602_uart.o)
 .text.UART_ClrRtsValue
                0x0000000000000000       0x18 /home/parag/bl_iot_sdk/customer_app/SWEMS/build_out/bl602_std/libbl602_std.a(bl602_uart.o)
 .text.UART_TxFreeRun
                0x0000000000000000       0x24 /home/parag/bl_iot_sdk/customer_app/SWEMS/build_out/bl602_std/libbl602_std.a(bl602_uart.o)
 .text.UART_AutoBaudDetection
                0x0000000000000000       0x24 /home/parag/bl_iot_sdk/customer_app/SWEMS/build_out/bl602_std/libbl602_std.a(bl602_uart.o)
 .text.UART_TxFifoClear
                0x0000000000000000       0x1e /home/parag/bl_iot_sdk/customer_app/SWEMS/build_out/bl602_std/libbl602_std.a(bl602_uart.o)
 .text.UART_RxFifoClear
                0x0000000000000000       0x1e /home/parag/bl_iot_sdk/customer_app/SWEMS/build_out/bl602_std/libbl602_std.a(bl602_uart.o)
 .text.UART_IntMask
                0x0000000000000000       0x3e /home/parag/bl_iot_sdk/customer_app/SWEMS/build_out/bl602_std/libbl602_std.a(bl602_uart.o)
 .text.UART_IntClear
                0x0000000000000000       0x2a /home/parag/bl_iot_sdk/customer_app/SWEMS/build_out/bl602_std/libbl602_std.a(bl602_uart.o)
 .text.UART_Int_Callback_Install
                0x0000000000000000        0x4 /home/parag/bl_iot_sdk/customer_app/SWEMS/build_out/bl602_std/libbl602_std.a(bl602_uart.o)
 .text.UART_GetAutoBaudCount
                0x0000000000000000       0x1a /home/parag/bl_iot_sdk/customer_app/SWEMS/build_out/bl602_std/libbl602_std.a(bl602_uart.o)
 .text.UART_SetBaudrate
                0x0000000000000000       0x30 /home/parag/bl_iot_sdk/customer_app/SWEMS/build_out/bl602_std/libbl602_std.a(bl602_uart.o)
 .text.UART_SendData
                0x0000000000000000       0x76 /home/parag/bl_iot_sdk/customer_app/SWEMS/build_out/bl602_std/libbl602_std.a(bl602_uart.o)
 .text.UART_GetRxFifoCount
                0x0000000000000000       0x1a /home/parag/bl_iot_sdk/customer_app/SWEMS/build_out/bl602_std/libbl602_std.a(bl602_uart.o)
 .text.UART_ReceiveData
                0x0000000000000000       0x56 /home/parag/bl_iot_sdk/customer_app/SWEMS/build_out/bl602_std/libbl602_std.a(bl602_uart.o)
 .text.UART_GetIntStatus
                0x0000000000000000       0x28 /home/parag/bl_iot_sdk/customer_app/SWEMS/build_out/bl602_std/libbl602_std.a(bl602_uart.o)
 .text.UART_GetTxBusBusyStatus
                0x0000000000000000       0x14 /home/parag/bl_iot_sdk/customer_app/SWEMS/build_out/bl602_std/libbl602_std.a(bl602_uart.o)
 .text.UART_SendDataBlock
                0x0000000000000000       0x86 /home/parag/bl_iot_sdk/customer_app/SWEMS/build_out/bl602_std/libbl602_std.a(bl602_uart.o)
 .text.UART_GetRxBusBusyStatus
                0x0000000000000000       0x16 /home/parag/bl_iot_sdk/customer_app/SWEMS/build_out/bl602_std/libbl602_std.a(bl602_uart.o)
 .text.UART_GetOverflowStatus
                0x0000000000000000       0x22 /home/parag/bl_iot_sdk/customer_app/SWEMS/build_out/bl602_std/libbl602_std.a(bl602_uart.o)
 .data          0x0000000000000000        0x0 /home/parag/bl_iot_sdk/toolchain/riscv/Linux/bin/../lib/gcc/riscv64-unknown-elf/8.3.0/../../../../riscv64-unknown-elf/lib/rv32imf/ilp32f/libm.a(lib_a-s_modf.o)
 .bss           0x0000000000000000        0x0 /home/parag/bl_iot_sdk/toolchain/riscv/Linux/bin/../lib/gcc/riscv64-unknown-elf/8.3.0/../../../../riscv64-unknown-elf/lib/rv32imf/ilp32f/libm.a(lib_a-s_modf.o)
 .text          0x0000000000000000       0x38 /home/parag/bl_iot_sdk/toolchain/riscv/Linux/bin/../lib/gcc/riscv64-unknown-elf/8.3.0/rv32imf/ilp32f/libgcc.a(_lshrdi3.o)
 .data          0x0000000000000000        0x0 /home/parag/bl_iot_sdk/toolchain/riscv/Linux/bin/../lib/gcc/riscv64-unknown-elf/8.3.0/rv32imf/ilp32f/libgcc.a(_lshrdi3.o)
 .bss           0x0000000000000000        0x0 /home/parag/bl_iot_sdk/toolchain/riscv/Linux/bin/../lib/gcc/riscv64-unknown-elf/8.3.0/rv32imf/ilp32f/libgcc.a(_lshrdi3.o)
 .debug_info    0x0000000000000000      0xc72 /home/parag/bl_iot_sdk/toolchain/riscv/Linux/bin/../lib/gcc/riscv64-unknown-elf/8.3.0/rv32imf/ilp32f/libgcc.a(_lshrdi3.o)
 .debug_abbrev  0x0000000000000000      0x275 /home/parag/bl_iot_sdk/toolchain/riscv/Linux/bin/../lib/gcc/riscv64-unknown-elf/8.3.0/rv32imf/ilp32f/libgcc.a(_lshrdi3.o)
 .debug_loc     0x0000000000000000       0x7e /home/parag/bl_iot_sdk/toolchain/riscv/Linux/bin/../lib/gcc/riscv64-unknown-elf/8.3.0/rv32imf/ilp32f/libgcc.a(_lshrdi3.o)
 .debug_aranges
                0x0000000000000000       0x20 /home/parag/bl_iot_sdk/toolchain/riscv/Linux/bin/../lib/gcc/riscv64-unknown-elf/8.3.0/rv32imf/ilp32f/libgcc.a(_lshrdi3.o)
 .debug_line    0x0000000000000000      0x40c /home/parag/bl_iot_sdk/toolchain/riscv/Linux/bin/../lib/gcc/riscv64-unknown-elf/8.3.0/rv32imf/ilp32f/libgcc.a(_lshrdi3.o)
 .debug_str     0x0000000000000000      0x837 /home/parag/bl_iot_sdk/toolchain/riscv/Linux/bin/../lib/gcc/riscv64-unknown-elf/8.3.0/rv32imf/ilp32f/libgcc.a(_lshrdi3.o)
 .comment       0x0000000000000000       0x29 /home/parag/bl_iot_sdk/toolchain/riscv/Linux/bin/../lib/gcc/riscv64-unknown-elf/8.3.0/rv32imf/ilp32f/libgcc.a(_lshrdi3.o)
 .debug_frame   0x0000000000000000       0x20 /home/parag/bl_iot_sdk/toolchain/riscv/Linux/bin/../lib/gcc/riscv64-unknown-elf/8.3.0/rv32imf/ilp32f/libgcc.a(_lshrdi3.o)
 .riscv.attributes
                0x0000000000000000       0x26 /home/parag/bl_iot_sdk/toolchain/riscv/Linux/bin/../lib/gcc/riscv64-unknown-elf/8.3.0/rv32imf/ilp32f/libgcc.a(_lshrdi3.o)
 .text          0x0000000000000000       0x38 /home/parag/bl_iot_sdk/toolchain/riscv/Linux/bin/../lib/gcc/riscv64-unknown-elf/8.3.0/rv32imf/ilp32f/libgcc.a(_ashldi3.o)
 .data          0x0000000000000000        0x0 /home/parag/bl_iot_sdk/toolchain/riscv/Linux/bin/../lib/gcc/riscv64-unknown-elf/8.3.0/rv32imf/ilp32f/libgcc.a(_ashldi3.o)
 .bss           0x0000000000000000        0x0 /home/parag/bl_iot_sdk/toolchain/riscv/Linux/bin/../lib/gcc/riscv64-unknown-elf/8.3.0/rv32imf/ilp32f/libgcc.a(_ashldi3.o)
 .debug_info    0x0000000000000000      0xc72 /home/parag/bl_iot_sdk/toolchain/riscv/Linux/bin/../lib/gcc/riscv64-unknown-elf/8.3.0/rv32imf/ilp32f/libgcc.a(_ashldi3.o)
 .debug_abbrev  0x0000000000000000      0x275 /home/parag/bl_iot_sdk/toolchain/riscv/Linux/bin/../lib/gcc/riscv64-unknown-elf/8.3.0/rv32imf/ilp32f/libgcc.a(_ashldi3.o)
 .debug_loc     0x0000000000000000       0x7e /home/parag/bl_iot_sdk/toolchain/riscv/Linux/bin/../lib/gcc/riscv64-unknown-elf/8.3.0/rv32imf/ilp32f/libgcc.a(_ashldi3.o)
 .debug_aranges
                0x0000000000000000       0x20 /home/parag/bl_iot_sdk/toolchain/riscv/Linux/bin/../lib/gcc/riscv64-unknown-elf/8.3.0/rv32imf/ilp32f/libgcc.a(_ashldi3.o)
 .debug_line    0x0000000000000000      0x40c /home/parag/bl_iot_sdk/toolchain/riscv/Linux/bin/../lib/gcc/riscv64-unknown-elf/8.3.0/rv32imf/ilp32f/libgcc.a(_ashldi3.o)
 .debug_str     0x0000000000000000      0x837 /home/parag/bl_iot_sdk/toolchain/riscv/Linux/bin/../lib/gcc/riscv64-unknown-elf/8.3.0/rv32imf/ilp32f/libgcc.a(_ashldi3.o)
 .comment       0x0000000000000000       0x29 /home/parag/bl_iot_sdk/toolchain/riscv/Linux/bin/../lib/gcc/riscv64-unknown-elf/8.3.0/rv32imf/ilp32f/libgcc.a(_ashldi3.o)
 .debug_frame   0x0000000000000000       0x20 /home/parag/bl_iot_sdk/toolchain/riscv/Linux/bin/../lib/gcc/riscv64-unknown-elf/8.3.0/rv32imf/ilp32f/libgcc.a(_ashldi3.o)
 .riscv.attributes
                0x0000000000000000       0x26 /home/parag/bl_iot_sdk/toolchain/riscv/Linux/bin/../lib/gcc/riscv64-unknown-elf/8.3.0/rv32imf/ilp32f/libgcc.a(_ashldi3.o)
 .data          0x0000000000000000        0x0 /home/parag/bl_iot_sdk/toolchain/riscv/Linux/bin/../lib/gcc/riscv64-unknown-elf/8.3.0/rv32imf/ilp32f/libgcc.a(_clzsi2.o)
 .bss           0x0000000000000000        0x0 /home/parag/bl_iot_sdk/toolchain/riscv/Linux/bin/../lib/gcc/riscv64-unknown-elf/8.3.0/rv32imf/ilp32f/libgcc.a(_clzsi2.o)
 .data          0x0000000000000000        0x0 /home/parag/bl_iot_sdk/toolchain/riscv/Linux/bin/../lib/gcc/riscv64-unknown-elf/8.3.0/rv32imf/ilp32f/libgcc.a(_udivdi3.o)
 .bss           0x0000000000000000        0x0 /home/parag/bl_iot_sdk/toolchain/riscv/Linux/bin/../lib/gcc/riscv64-unknown-elf/8.3.0/rv32imf/ilp32f/libgcc.a(_udivdi3.o)
 .eh_frame      0x0000000000000000       0x28 /home/parag/bl_iot_sdk/toolchain/riscv/Linux/bin/../lib/gcc/riscv64-unknown-elf/8.3.0/rv32imf/ilp32f/libgcc.a(_udivdi3.o)
 .data          0x0000000000000000        0x0 /home/parag/bl_iot_sdk/toolchain/riscv/Linux/bin/../lib/gcc/riscv64-unknown-elf/8.3.0/rv32imf/ilp32f/libgcc.a(_umoddi3.o)
 .bss           0x0000000000000000        0x0 /home/parag/bl_iot_sdk/toolchain/riscv/Linux/bin/../lib/gcc/riscv64-unknown-elf/8.3.0/rv32imf/ilp32f/libgcc.a(_umoddi3.o)
 .eh_frame      0x0000000000000000       0x28 /home/parag/bl_iot_sdk/toolchain/riscv/Linux/bin/../lib/gcc/riscv64-unknown-elf/8.3.0/rv32imf/ilp32f/libgcc.a(_umoddi3.o)
 .data          0x0000000000000000        0x0 /home/parag/bl_iot_sdk/toolchain/riscv/Linux/bin/../lib/gcc/riscv64-unknown-elf/8.3.0/rv32imf/ilp32f/libgcc.a(adddf3.o)
 .bss           0x0000000000000000        0x0 /home/parag/bl_iot_sdk/toolchain/riscv/Linux/bin/../lib/gcc/riscv64-unknown-elf/8.3.0/rv32imf/ilp32f/libgcc.a(adddf3.o)
 .data          0x0000000000000000        0x0 /home/parag/bl_iot_sdk/toolchain/riscv/Linux/bin/../lib/gcc/riscv64-unknown-elf/8.3.0/rv32imf/ilp32f/libgcc.a(divdf3.o)
 .bss           0x0000000000000000        0x0 /home/parag/bl_iot_sdk/toolchain/riscv/Linux/bin/../lib/gcc/riscv64-unknown-elf/8.3.0/rv32imf/ilp32f/libgcc.a(divdf3.o)
 .data          0x0000000000000000        0x0 /home/parag/bl_iot_sdk/toolchain/riscv/Linux/bin/../lib/gcc/riscv64-unknown-elf/8.3.0/rv32imf/ilp32f/libgcc.a(eqdf2.o)
 .bss           0x0000000000000000        0x0 /home/parag/bl_iot_sdk/toolchain/riscv/Linux/bin/../lib/gcc/riscv64-unknown-elf/8.3.0/rv32imf/ilp32f/libgcc.a(eqdf2.o)
 .data          0x0000000000000000        0x0 /home/parag/bl_iot_sdk/toolchain/riscv/Linux/bin/../lib/gcc/riscv64-unknown-elf/8.3.0/rv32imf/ilp32f/libgcc.a(gedf2.o)
 .bss           0x0000000000000000        0x0 /home/parag/bl_iot_sdk/toolchain/riscv/Linux/bin/../lib/gcc/riscv64-unknown-elf/8.3.0/rv32imf/ilp32f/libgcc.a(gedf2.o)
 .data          0x0000000000000000        0x0 /home/parag/bl_iot_sdk/toolchain/riscv/Linux/bin/../lib/gcc/riscv64-unknown-elf/8.3.0/rv32imf/ilp32f/libgcc.a(ledf2.o)
 .bss           0x0000000000000000        0x0 /home/parag/bl_iot_sdk/toolchain/riscv/Linux/bin/../lib/gcc/riscv64-unknown-elf/8.3.0/rv32imf/ilp32f/libgcc.a(ledf2.o)
 .data          0x0000000000000000        0x0 /home/parag/bl_iot_sdk/toolchain/riscv/Linux/bin/../lib/gcc/riscv64-unknown-elf/8.3.0/rv32imf/ilp32f/libgcc.a(muldf3.o)
 .bss           0x0000000000000000        0x0 /home/parag/bl_iot_sdk/toolchain/riscv/Linux/bin/../lib/gcc/riscv64-unknown-elf/8.3.0/rv32imf/ilp32f/libgcc.a(muldf3.o)
 .data          0x0000000000000000        0x0 /home/parag/bl_iot_sdk/toolchain/riscv/Linux/bin/../lib/gcc/riscv64-unknown-elf/8.3.0/rv32imf/ilp32f/libgcc.a(subdf3.o)
 .bss           0x0000000000000000        0x0 /home/parag/bl_iot_sdk/toolchain/riscv/Linux/bin/../lib/gcc/riscv64-unknown-elf/8.3.0/rv32imf/ilp32f/libgcc.a(subdf3.o)
 .data          0x0000000000000000        0x0 /home/parag/bl_iot_sdk/toolchain/riscv/Linux/bin/../lib/gcc/riscv64-unknown-elf/8.3.0/rv32imf/ilp32f/libgcc.a(fixdfsi.o)
 .bss           0x0000000000000000        0x0 /home/parag/bl_iot_sdk/toolchain/riscv/Linux/bin/../lib/gcc/riscv64-unknown-elf/8.3.0/rv32imf/ilp32f/libgcc.a(fixdfsi.o)
 .text          0x0000000000000000        0x0 /home/parag/bl_iot_sdk/toolchain/riscv/Linux/bin/../lib/gcc/riscv64-unknown-elf/8.3.0/rv32imf/ilp32f/libgcc.a(_clz.o)
 .data          0x0000000000000000        0x0 /home/parag/bl_iot_sdk/toolchain/riscv/Linux/bin/../lib/gcc/riscv64-unknown-elf/8.3.0/rv32imf/ilp32f/libgcc.a(_clz.o)
 .bss           0x0000000000000000        0x0 /home/parag/bl_iot_sdk/toolchain/riscv/Linux/bin/../lib/gcc/riscv64-unknown-elf/8.3.0/rv32imf/ilp32f/libgcc.a(_clz.o)
 .data          0x0000000000000000        0x0 /home/parag/bl_iot_sdk/toolchain/riscv/Linux/bin/../lib/gcc/riscv64-unknown-elf/8.3.0/../../../../riscv64-unknown-elf/lib/rv32imf/ilp32f/libc.a(lib_a-memcpy.o)
 .bss           0x0000000000000000        0x0 /home/parag/bl_iot_sdk/toolchain/riscv/Linux/bin/../lib/gcc/riscv64-unknown-elf/8.3.0/../../../../riscv64-unknown-elf/lib/rv32imf/ilp32f/libc.a(lib_a-memcpy.o)
 .data          0x0000000000000000        0x0 /home/parag/bl_iot_sdk/toolchain/riscv/Linux/bin/../lib/gcc/riscv64-unknown-elf/8.3.0/../../../../riscv64-unknown-elf/lib/rv32imf/ilp32f/libc.a(lib_a-memset.o)
 .bss           0x0000000000000000        0x0 /home/parag/bl_iot_sdk/toolchain/riscv/Linux/bin/../lib/gcc/riscv64-unknown-elf/8.3.0/../../../../riscv64-unknown-elf/lib/rv32imf/ilp32f/libc.a(lib_a-memset.o)
 .text          0x0000000000000000      0x17c /home/parag/bl_iot_sdk/toolchain/riscv/Linux/bin/../lib/gcc/riscv64-unknown-elf/8.3.0/../../../../riscv64-unknown-elf/lib/rv32imf/ilp32f/libc.a(lib_a-strcmp.o)
 .data          0x0000000000000000        0x0 /home/parag/bl_iot_sdk/toolchain/riscv/Linux/bin/../lib/gcc/riscv64-unknown-elf/8.3.0/../../../../riscv64-unknown-elf/lib/rv32imf/ilp32f/libc.a(lib_a-strcmp.o)
 .bss           0x0000000000000000        0x0 /home/parag/bl_iot_sdk/toolchain/riscv/Linux/bin/../lib/gcc/riscv64-unknown-elf/8.3.0/../../../../riscv64-unknown-elf/lib/rv32imf/ilp32f/libc.a(lib_a-strcmp.o)
 .riscv.attributes
                0x0000000000000000       0x24 /home/parag/bl_iot_sdk/toolchain/riscv/Linux/bin/../lib/gcc/riscv64-unknown-elf/8.3.0/../../../../riscv64-unknown-elf/lib/rv32imf/ilp32f/libc.a(lib_a-strcmp.o)
 .text          0x0000000000000000       0xb0 /home/parag/bl_iot_sdk/toolchain/riscv/Linux/bin/../lib/gcc/riscv64-unknown-elf/8.3.0/../../../../riscv64-unknown-elf/lib/rv32imf/ilp32f/libc.a(lib_a-strcpy.o)
 .data          0x0000000000000000        0x0 /home/parag/bl_iot_sdk/toolchain/riscv/Linux/bin/../lib/gcc/riscv64-unknown-elf/8.3.0/../../../../riscv64-unknown-elf/lib/rv32imf/ilp32f/libc.a(lib_a-strcpy.o)
 .bss           0x0000000000000000        0x0 /home/parag/bl_iot_sdk/toolchain/riscv/Linux/bin/../lib/gcc/riscv64-unknown-elf/8.3.0/../../../../riscv64-unknown-elf/lib/rv32imf/ilp32f/libc.a(lib_a-strcpy.o)
 .comment       0x0000000000000000       0x29 /home/parag/bl_iot_sdk/toolchain/riscv/Linux/bin/../lib/gcc/riscv64-unknown-elf/8.3.0/../../../../riscv64-unknown-elf/lib/rv32imf/ilp32f/libc.a(lib_a-strcpy.o)
 .riscv.attributes
                0x0000000000000000       0x26 /home/parag/bl_iot_sdk/toolchain/riscv/Linux/bin/../lib/gcc/riscv64-unknown-elf/8.3.0/../../../../riscv64-unknown-elf/lib/rv32imf/ilp32f/libc.a(lib_a-strcpy.o)
 .data          0x0000000000000000        0x0 /home/parag/bl_iot_sdk/toolchain/riscv/Linux/bin/../lib/gcc/riscv64-unknown-elf/8.3.0/../../../../riscv64-unknown-elf/lib/rv32imf/ilp32f/libc.a(lib_a-strlen.o)
 .bss           0x0000000000000000        0x0 /home/parag/bl_iot_sdk/toolchain/riscv/Linux/bin/../lib/gcc/riscv64-unknown-elf/8.3.0/../../../../riscv64-unknown-elf/lib/rv32imf/ilp32f/libc.a(lib_a-strlen.o)
 .data          0x0000000000000000        0x0 /home/parag/bl_iot_sdk/toolchain/riscv/Linux/bin/../lib/gcc/riscv64-unknown-elf/8.3.0/../../../../riscv64-unknown-elf/lib/rv32imf/ilp32f/libc.a(lib_a-strnlen.o)
 .bss           0x0000000000000000        0x0 /home/parag/bl_iot_sdk/toolchain/riscv/Linux/bin/../lib/gcc/riscv64-unknown-elf/8.3.0/../../../../riscv64-unknown-elf/lib/rv32imf/ilp32f/libc.a(lib_a-strnlen.o)

Memory Configuration

Name             Origin             Length             Attributes
rom              0x0000000021015000 0x000000000000b000 axrl !w
flash            0x0000000023000000 0x0000000000400000 axrl !w
ram_tcm          0x000000004200c000 0x0000000000036000 axw
ram_wifi         0x0000000042042000 0x000000000000a000 axw
*default*        0x0000000000000000 0xffffffffffffffff

Linker script and memory map

START GROUP
LOAD /home/parag/bl_iot_sdk/customer_app/SWEMS/build_out/SWEMS/libSWEMS.a
LOAD /home/parag/bl_iot_sdk/customer_app/SWEMS/build_out/bl602/libbl602.a
LOAD /home/parag/bl_iot_sdk/customer_app/SWEMS/build_out/bl602_std/libbl602_std.a
LOAD /home/parag/bl_iot_sdk/customer_app/SWEMS/build_out/blfdt/libblfdt.a
LOAD /home/parag/bl_iot_sdk/customer_app/SWEMS/build_out/blmtd/libblmtd.a
LOAD /home/parag/bl_iot_sdk/customer_app/SWEMS/build_out/blog/libblog.a
LOAD /home/parag/bl_iot_sdk/customer_app/SWEMS/build_out/blog_testc/libblog_testc.a
LOAD /home/parag/bl_iot_sdk/customer_app/SWEMS/build_out/bloop/libbloop.a
LOAD /home/parag/bl_iot_sdk/customer_app/SWEMS/build_out/bltime/libbltime.a
LOAD /home/parag/bl_iot_sdk/customer_app/SWEMS/build_out/cli/libcli.a
LOAD /home/parag/bl_iot_sdk/customer_app/SWEMS/build_out/freertos_riscv_ram/libfreertos_riscv_ram.a
LOAD /home/parag/bl_iot_sdk/customer_app/SWEMS/build_out/hal_drv/libhal_drv.a
LOAD /home/parag/bl_iot_sdk/customer_app/SWEMS/build_out/looprt/liblooprt.a
LOAD /home/parag/bl_iot_sdk/customer_app/SWEMS/build_out/loopset/libloopset.a
LOAD /home/parag/bl_iot_sdk/customer_app/SWEMS/build_out/romfs/libromfs.a
LOAD /home/parag/bl_iot_sdk/customer_app/SWEMS/build_out/utils/libutils.a
LOAD /home/parag/bl_iot_sdk/customer_app/SWEMS/build_out/vfs/libvfs.a
LOAD /home/parag/bl_iot_sdk/customer_app/SWEMS/build_out/yloop/libyloop.a
END GROUP
LOAD /home/parag/bl_iot_sdk/toolchain/riscv/Linux/bin/../lib/gcc/riscv64-unknown-elf/8.3.0/../../../../riscv64-unknown-elf/lib/rv32imf/ilp32f/libm.a
LOAD /home/parag/bl_iot_sdk/toolchain/riscv/Linux/bin/../lib/gcc/riscv64-unknown-elf/8.3.0/rv32imf/ilp32f/libgcc.a
START GROUP
LOAD /home/parag/bl_iot_sdk/toolchain/riscv/Linux/bin/../lib/gcc/riscv64-unknown-elf/8.3.0/../../../../riscv64-unknown-elf/lib/rv32imf/ilp32f/libc.a
LOAD /home/parag/bl_iot_sdk/toolchain/riscv/Linux/bin/../lib/gcc/riscv64-unknown-elf/8.3.0/../../../../riscv64-unknown-elf/lib/rv32imf/ilp32f/libgloss.a
END GROUP
LOAD /home/parag/bl_iot_sdk/toolchain/riscv/Linux/bin/../lib/gcc/riscv64-unknown-elf/8.3.0/rv32imf/ilp32f/libgcc.a
                0x0000000000000000                __EM_SIZE = DEFINED (ble_controller_init)?0x2000:0x0
                0x0000000000000800                __stack_size = DEFINED (__stack_size)?__stack_size:0x800
                0x0000000042049c00                BOOT2_PT_ADDR = 0x42049c00
                0x0000000042049c18                BOOT2_FLASHCFG_ADDR = 0x42049c18

.init           0x0000000023000000      0x120
 *(SORT_NONE(.init))
 .init          0x0000000023000000      0x120 /home/parag/bl_iot_sdk/customer_app/SWEMS/build_out/bl602/libbl602.a(start.o)
                0x0000000023000000                bl602_start

.text           0x0000000023000200     0x6a50
 *(.text.unlikely .text.unlikely.*)
 *(.text.startup .text.startup.*)
 *(.text .text.*)
 .text.hal_boot2_get_flash_addr
                0x0000000023000200       0x18 /home/parag/bl_iot_sdk/customer_app/SWEMS/build_out/hal_drv/libhal_drv.a(hal_boot2.o)
                0x0000000023000200                hal_boot2_get_flash_addr
 .text.bfl_main
                0x0000000023000218       0x2c /home/parag/bl_iot_sdk/customer_app/SWEMS/build_out/SWEMS/libSWEMS.a(main.o)
                0x0000000023000218                bfl_main
 .text.task_buzzer
                0x0000000023000244       0x38 /home/parag/bl_iot_sdk/customer_app/SWEMS/build_out/SWEMS/libSWEMS.a(buzzer.o)
                0x0000000023000244                task_buzzer
 .text.prvResetNextTaskUnblockTime.part.0
                0x000000002300027c       0x10 /home/parag/bl_iot_sdk/customer_app/SWEMS/build_out/freertos_riscv_ram/libfreertos_riscv_ram.a(tasks.o)
 .text.prvInitialiseNewTask.isra.2
                0x000000002300028c       0xce /home/parag/bl_iot_sdk/customer_app/SWEMS/build_out/freertos_riscv_ram/libfreertos_riscv_ram.a(tasks.o)
 .text.prvDeleteTCB
                0x000000002300035a       0x36 /home/parag/bl_iot_sdk/customer_app/SWEMS/build_out/freertos_riscv_ram/libfreertos_riscv_ram.a(tasks.o)
 .text.prvAddCurrentTaskToDelayedList
                0x0000000023000390       0xaa /home/parag/bl_iot_sdk/customer_app/SWEMS/build_out/freertos_riscv_ram/libfreertos_riscv_ram.a(tasks.o)
 .text.vTaskEnterCritical.part.7
                0x000000002300043a       0x10 /home/parag/bl_iot_sdk/customer_app/SWEMS/build_out/freertos_riscv_ram/libfreertos_riscv_ram.a(tasks.o)
 .text.vTaskExitCritical.part.8
                0x000000002300044a       0x18 /home/parag/bl_iot_sdk/customer_app/SWEMS/build_out/freertos_riscv_ram/libfreertos_riscv_ram.a(tasks.o)
 .text.prvAddNewTaskToReadyList
                0x0000000023000462      0x134 /home/parag/bl_iot_sdk/customer_app/SWEMS/build_out/freertos_riscv_ram/libfreertos_riscv_ram.a(tasks.o)
 .text.prvIdleTask
                0x0000000023000596       0x88 /home/parag/bl_iot_sdk/customer_app/SWEMS/build_out/freertos_riscv_ram/libfreertos_riscv_ram.a(tasks.o)
 .text.xTaskCreateStatic
                0x000000002300061e       0x9c /home/parag/bl_iot_sdk/customer_app/SWEMS/build_out/freertos_riscv_ram/libfreertos_riscv_ram.a(tasks.o)
                0x000000002300061e                xTaskCreateStatic
 .text.vTaskStartScheduler
                0x00000000230006ba       0x66 /home/parag/bl_iot_sdk/customer_app/SWEMS/build_out/freertos_riscv_ram/libfreertos_riscv_ram.a(tasks.o)
                0x00000000230006ba                vTaskStartScheduler
 .text.vTaskSuspendAll
                0x0000000023000720        0xc /home/parag/bl_iot_sdk/customer_app/SWEMS/build_out/freertos_riscv_ram/libfreertos_riscv_ram.a(tasks.o)
                0x0000000023000720                vTaskSuspendAll
 .text.xTaskGetTickCount
                0x000000002300072c        0x6 /home/parag/bl_iot_sdk/customer_app/SWEMS/build_out/freertos_riscv_ram/libfreertos_riscv_ram.a(tasks.o)
                0x000000002300072c                xTaskGetTickCount
 .text.xTaskIncrementTick
                0x0000000023000732      0x162 /home/parag/bl_iot_sdk/customer_app/SWEMS/build_out/freertos_riscv_ram/libfreertos_riscv_ram.a(tasks.o)
                0x0000000023000732                xTaskIncrementTick
 .text.xTaskResumeAll
                0x0000000023000894      0x122 /home/parag/bl_iot_sdk/customer_app/SWEMS/build_out/freertos_riscv_ram/libfreertos_riscv_ram.a(tasks.o)
                0x0000000023000894                xTaskResumeAll
 .text.vTaskDelay
                0x00000000230009b6       0x3c /home/parag/bl_iot_sdk/customer_app/SWEMS/build_out/freertos_riscv_ram/libfreertos_riscv_ram.a(tasks.o)
                0x00000000230009b6                vTaskDelay
 .text.vTaskSwitchContext
                0x00000000230009f2       0xb2 /home/parag/bl_iot_sdk/customer_app/SWEMS/build_out/freertos_riscv_ram/libfreertos_riscv_ram.a(tasks.o)
                0x00000000230009f2                vTaskSwitchContext
 .text.vTaskPlaceOnEventList
                0x0000000023000aa4       0x2c /home/parag/bl_iot_sdk/customer_app/SWEMS/build_out/freertos_riscv_ram/libfreertos_riscv_ram.a(tasks.o)
                0x0000000023000aa4                vTaskPlaceOnEventList
 .text.vTaskPlaceOnEventListRestricted
                0x0000000023000ad0       0x36 /home/parag/bl_iot_sdk/customer_app/SWEMS/build_out/freertos_riscv_ram/libfreertos_riscv_ram.a(tasks.o)
                0x0000000023000ad0                vTaskPlaceOnEventListRestricted
 .text.xTaskRemoveFromEventList
                0x0000000023000b06       0x84 /home/parag/bl_iot_sdk/customer_app/SWEMS/build_out/freertos_riscv_ram/libfreertos_riscv_ram.a(tasks.o)
                0x0000000023000b06                xTaskRemoveFromEventList
 .text.vTaskInternalSetTimeOutState
                0x0000000023000b8a        0xe /home/parag/bl_iot_sdk/customer_app/SWEMS/build_out/freertos_riscv_ram/libfreertos_riscv_ram.a(tasks.o)
                0x0000000023000b8a                vTaskInternalSetTimeOutState
 .text.xTaskCheckForTimeOut
                0x0000000023000b98       0xa2 /home/parag/bl_iot_sdk/customer_app/SWEMS/build_out/freertos_riscv_ram/libfreertos_riscv_ram.a(tasks.o)
                0x0000000023000b98                xTaskCheckForTimeOut
 .text.vTaskMissedYield
                0x0000000023000c3a        0x8 /home/parag/bl_iot_sdk/customer_app/SWEMS/build_out/freertos_riscv_ram/libfreertos_riscv_ram.a(tasks.o)
                0x0000000023000c3a                vTaskMissedYield
 .text.xTaskGetSchedulerState
                0x0000000023000c42       0x14 /home/parag/bl_iot_sdk/customer_app/SWEMS/build_out/freertos_riscv_ram/libfreertos_riscv_ram.a(tasks.o)
                0x0000000023000c42                xTaskGetSchedulerState
 .text.xTaskPriorityDisinherit
                0x0000000023000c56       0xc4 /home/parag/bl_iot_sdk/customer_app/SWEMS/build_out/freertos_riscv_ram/libfreertos_riscv_ram.a(tasks.o)
                0x0000000023000c56                xTaskPriorityDisinherit
 .text.vTaskEnterCritical
                0x0000000023000d1a       0x10 /home/parag/bl_iot_sdk/customer_app/SWEMS/build_out/freertos_riscv_ram/libfreertos_riscv_ram.a(tasks.o)
                0x0000000023000d1a                vTaskEnterCritical
 .text.vTaskExitCritical
                0x0000000023000d2a       0x14 /home/parag/bl_iot_sdk/customer_app/SWEMS/build_out/freertos_riscv_ram/libfreertos_riscv_ram.a(tasks.o)
                0x0000000023000d2a                vTaskExitCritical
 .text.prvCheckForValidListAndQueue
                0x0000000023000d3e       0x74 /home/parag/bl_iot_sdk/customer_app/SWEMS/build_out/freertos_riscv_ram/libfreertos_riscv_ram.a(timers.o)
 .text.prvInsertTimerInActiveList
                0x0000000023000db2       0x50 /home/parag/bl_iot_sdk/customer_app/SWEMS/build_out/freertos_riscv_ram/libfreertos_riscv_ram.a(timers.o)
 .text.xTimerCreateTimerTask
                0x0000000023000e02       0x52 /home/parag/bl_iot_sdk/customer_app/SWEMS/build_out/freertos_riscv_ram/libfreertos_riscv_ram.a(timers.o)
                0x0000000023000e02                xTimerCreateTimerTask
 .text.xTimerGenericCommand
                0x0000000023000e54       0x8e /home/parag/bl_iot_sdk/customer_app/SWEMS/build_out/freertos_riscv_ram/libfreertos_riscv_ram.a(timers.o)
                0x0000000023000e54                xTimerGenericCommand
 .text.prvSwitchTimerLists
                0x0000000023000ee2       0x80 /home/parag/bl_iot_sdk/customer_app/SWEMS/build_out/freertos_riscv_ram/libfreertos_riscv_ram.a(timers.o)
 .text.prvTimerTask
                0x0000000023000f62      0x1d4 /home/parag/bl_iot_sdk/customer_app/SWEMS/build_out/freertos_riscv_ram/libfreertos_riscv_ram.a(timers.o)
 .text.vPortSetupTimerInterrupt
                0x0000000023001136       0x46 /home/parag/bl_iot_sdk/customer_app/SWEMS/build_out/freertos_riscv_ram/libfreertos_riscv_ram.a(port.o)
                0x0000000023001136                vPortSetupTimerInterrupt
 .text.xPortStartScheduler
                0x000000002300117c       0x3e /home/parag/bl_iot_sdk/customer_app/SWEMS/build_out/freertos_riscv_ram/libfreertos_riscv_ram.a(port.o)
                0x000000002300117c                xPortStartScheduler
 *fill*         0x00000000230011ba       0x46 
 .text          0x0000000023001200      0x538 /home/parag/bl_iot_sdk/customer_app/SWEMS/build_out/freertos_riscv_ram/libfreertos_riscv_ram.a(portASM.o)
                0x0000000023001200                freertos_risc_v_trap_handler
                0x0000000023001500                xPortStartFirstTask
                0x0000000023001600                pxPortInitialiseStack
 .text.prvInsertBlockIntoFreeList
                0x0000000023001738       0x4a /home/parag/bl_iot_sdk/customer_app/SWEMS/build_out/freertos_riscv_ram/libfreertos_riscv_ram.a(heap_5.o)
 .text.vPortFree
                0x0000000023001782       0x88 /home/parag/bl_iot_sdk/customer_app/SWEMS/build_out/freertos_riscv_ram/libfreertos_riscv_ram.a(heap_5.o)
                0x0000000023001782                vPortFree
 .text.vListInitialise
                0x000000002300180a       0x14 /home/parag/bl_iot_sdk/customer_app/SWEMS/build_out/freertos_riscv_ram/libfreertos_riscv_ram.a(list.o)
                0x000000002300180a                vListInitialise
 .text.vListInitialiseItem
                0x000000002300181e        0x6 /home/parag/bl_iot_sdk/customer_app/SWEMS/build_out/freertos_riscv_ram/libfreertos_riscv_ram.a(list.o)
                0x000000002300181e                vListInitialiseItem
 .text.vListInsertEnd
                0x0000000023001824       0x16 /home/parag/bl_iot_sdk/customer_app/SWEMS/build_out/freertos_riscv_ram/libfreertos_riscv_ram.a(list.o)
                0x0000000023001824                vListInsertEnd
 .text.vListInsert
                0x000000002300183a       0x30 /home/parag/bl_iot_sdk/customer_app/SWEMS/build_out/freertos_riscv_ram/libfreertos_riscv_ram.a(list.o)
                0x000000002300183a                vListInsert
 .text.uxListRemove
                0x000000002300186a       0x32 /home/parag/bl_iot_sdk/customer_app/SWEMS/build_out/freertos_riscv_ram/libfreertos_riscv_ram.a(list.o)
                0x000000002300186a                uxListRemove
 .text.prvCopyDataToQueue
                0x000000002300189c       0xa4 /home/parag/bl_iot_sdk/customer_app/SWEMS/build_out/freertos_riscv_ram/libfreertos_riscv_ram.a(queue.o)
 .text.prvCopyDataFromQueue
                0x0000000023001940       0x1e /home/parag/bl_iot_sdk/customer_app/SWEMS/build_out/freertos_riscv_ram/libfreertos_riscv_ram.a(queue.o)
 .text.prvUnlockQueue
                0x000000002300195e       0xb6 /home/parag/bl_iot_sdk/customer_app/SWEMS/build_out/freertos_riscv_ram/libfreertos_riscv_ram.a(queue.o)
 .text.xQueueGenericReset
                0x0000000023001a14       0x8c /home/parag/bl_iot_sdk/customer_app/SWEMS/build_out/freertos_riscv_ram/libfreertos_riscv_ram.a(queue.o)
                0x0000000023001a14                xQueueGenericReset
 .text.xQueueGenericCreateStatic
                0x0000000023001aa0       0x76 /home/parag/bl_iot_sdk/customer_app/SWEMS/build_out/freertos_riscv_ram/libfreertos_riscv_ram.a(queue.o)
                0x0000000023001aa0                xQueueGenericCreateStatic
 .text.xQueueGenericSend
                0x0000000023001b16      0x148 /home/parag/bl_iot_sdk/customer_app/SWEMS/build_out/freertos_riscv_ram/libfreertos_riscv_ram.a(queue.o)
                0x0000000023001b16                xQueueGenericSend
 .text.xQueueGenericSendFromISR
                0x0000000023001c5e       0xb4 /home/parag/bl_iot_sdk/customer_app/SWEMS/build_out/freertos_riscv_ram/libfreertos_riscv_ram.a(queue.o)
                0x0000000023001c5e                xQueueGenericSendFromISR
 .text.xQueueReceive
                0x0000000023001d12      0x146 /home/parag/bl_iot_sdk/customer_app/SWEMS/build_out/freertos_riscv_ram/libfreertos_riscv_ram.a(queue.o)
                0x0000000023001d12                xQueueReceive
 .text.vQueueAddToRegistry
                0x0000000023001e58       0x28 /home/parag/bl_iot_sdk/customer_app/SWEMS/build_out/freertos_riscv_ram/libfreertos_riscv_ram.a(queue.o)
                0x0000000023001e58                vQueueAddToRegistry
 .text.vQueueWaitForMessageRestricted
                0x0000000023001e80       0x6c /home/parag/bl_iot_sdk/customer_app/SWEMS/build_out/freertos_riscv_ram/libfreertos_riscv_ram.a(queue.o)
                0x0000000023001e80                vQueueWaitForMessageRestricted
 .text.interrupt_entry
                0x0000000023001eec       0x4e /home/parag/bl_iot_sdk/customer_app/SWEMS/build_out/hal_drv/libhal_drv.a(bl_irq.o)
                0x0000000023001eec                interrupt_entry
 .text.exception_entry
                0x0000000023001f3a      0x140 /home/parag/bl_iot_sdk/customer_app/SWEMS/build_out/hal_drv/libhal_drv.a(bl_irq.o)
                0x0000000023001f3a                exception_entry
 .text.bl_gpio_enable_output
                0x000000002300207a       0x44 /home/parag/bl_iot_sdk/customer_app/SWEMS/build_out/hal_drv/libhal_drv.a(bl_gpio.o)
                0x000000002300207a                bl_gpio_enable_output
 .text.bl_gpio_output_set
                0x00000000230020be       0x14 /home/parag/bl_iot_sdk/customer_app/SWEMS/build_out/hal_drv/libhal_drv.a(bl_gpio.o)
                0x00000000230020be                bl_gpio_output_set
 .text.vAssertCalled
                0x00000000230020d2       0x18 /home/parag/bl_iot_sdk/customer_app/SWEMS/build_out/SWEMS/libSWEMS.a(freertos.o)
                0x00000000230020d2                vAssertCalled
 .text.vApplicationGetIdleTaskMemory
                0x00000000230020ea       0x1c /home/parag/bl_iot_sdk/customer_app/SWEMS/build_out/SWEMS/libSWEMS.a(freertos.o)
                0x00000000230020ea                vApplicationGetIdleTaskMemory
 .text.vApplicationGetTimerTaskMemory
                0x0000000023002106       0x1c /home/parag/bl_iot_sdk/customer_app/SWEMS/build_out/SWEMS/libSWEMS.a(freertos.o)
                0x0000000023002106                vApplicationGetTimerTaskMemory
 .text.vApplicationIdleHook
                0x0000000023002122        0x6 /home/parag/bl_iot_sdk/customer_app/SWEMS/build_out/SWEMS/libSWEMS.a(freertos.o)
                0x0000000023002122                vApplicationIdleHook
 .text.vApplicationStackOverflowHook
                0x0000000023002128       0x22 /home/parag/bl_iot_sdk/customer_app/SWEMS/build_out/SWEMS/libSWEMS.a(freertos.o)
                0x0000000023002128                vApplicationStackOverflowHook
 .text.format_int
                0x000000002300214a      0x25a /home/parag/bl_iot_sdk/customer_app/SWEMS/build_out/bl602/libbl602.a(debug.o)
 .text.cvt      0x00000000230023a4      0x23a /home/parag/bl_iot_sdk/customer_app/SWEMS/build_out/bl602/libbl602.a(debug.o)
 .text.ecvtbuf  0x00000000230025de        0x6 /home/parag/bl_iot_sdk/customer_app/SWEMS/build_out/bl602/libbl602.a(debug.o)
                0x00000000230025de                ecvtbuf
 .text.fcvtbuf  0x00000000230025e4        0x6 /home/parag/bl_iot_sdk/customer_app/SWEMS/build_out/bl602/libbl602.a(debug.o)
                0x00000000230025e4                fcvtbuf
 .text.flt      0x00000000230025ea      0x438 /home/parag/bl_iot_sdk/customer_app/SWEMS/build_out/bl602/libbl602.a(debug.o)
 .text.vsnprintf
                0x0000000023002a22      0x4d2 /home/parag/bl_iot_sdk/customer_app/SWEMS/build_out/bl602/libbl602.a(debug.o)
                0x0000000023002a22                vsnprintf
 .text.vsprintf
                0x0000000023002ef4        0xc /home/parag/bl_iot_sdk/customer_app/SWEMS/build_out/bl602/libbl602.a(debug.o)
                0x0000000023002ef4                vsprintf
 .text.vprint   0x0000000023002f00       0x3e /home/parag/bl_iot_sdk/customer_app/SWEMS/build_out/bl602/libbl602.a(debug.o)
                0x0000000023002f00                vprint
 .text.puts     0x0000000023002f3e       0x36 /home/parag/bl_iot_sdk/customer_app/SWEMS/build_out/bl602/libbl602.a(debug.o)
                0x0000000023002f3e                puts
 .text.printf   0x0000000023002f74       0x2a /home/parag/bl_iot_sdk/customer_app/SWEMS/build_out/bl602/libbl602.a(debug.o)
                0x0000000023002f74                printf
 .text.GLB_GPIO_Write
                0x0000000023002f9e       0x2a /home/parag/bl_iot_sdk/customer_app/SWEMS/build_out/bl602_std/libbl602_std.a(bl602_glb.o)
                0x0000000023002f9e                GLB_GPIO_Write
 .text.HBN_Get_RTC_Timer_Val
                0x0000000023002fc8       0x28 /home/parag/bl_iot_sdk/customer_app/SWEMS/build_out/bl602_std/libbl602_std.a(bl602_hbn.o)
                0x0000000023002fc8                HBN_Get_RTC_Timer_Val
 .text.bl_sys_time_sync_state
                0x0000000023002ff0       0x56 /home/parag/bl_iot_sdk/customer_app/SWEMS/build_out/bltime/libbltime.a(bl_sys_time.o)
                0x0000000023002ff0                bl_sys_time_sync_state
 .text.misaligned_load_trap
                0x0000000023003046      0x152 /home/parag/bl_iot_sdk/customer_app/SWEMS/build_out/freertos_riscv_ram/libfreertos_riscv_ram.a(misaligned_ldst.o)
                0x0000000023003046                misaligned_load_trap
 .text.misaligned_store_trap
                0x0000000023003198      0x14c /home/parag/bl_iot_sdk/customer_app/SWEMS/build_out/freertos_riscv_ram/libfreertos_riscv_ram.a(misaligned_ldst.o)
                0x0000000023003198                misaligned_store_trap
 .text          0x00000000230032e4      0x200 /home/parag/bl_iot_sdk/customer_app/SWEMS/build_out/freertos_riscv_ram/libfreertos_riscv_ram.a(fp_asm.o)
                0x00000000230032e4                get_f32_reg
                0x00000000230033e4                put_f32_reg
 .text.backtrace_riscv
                0x00000000230034e4        0x4 /home/parag/bl_iot_sdk/customer_app/SWEMS/build_out/freertos_riscv_ram/libfreertos_riscv_ram.a(panic_c.o)
                0x00000000230034e4                backtrace_riscv
                0x00000000230034e4                backtrace_now
 .text.bl_uart_data_send
                0x00000000230034e8       0x34 /home/parag/bl_iot_sdk/customer_app/SWEMS/build_out/hal_drv/libhal_drv.a(bl_uart.o)
                0x00000000230034e8                bl_uart_data_send
 .text.bl_rtc_get_counter
                0x000000002300351c       0x16 /home/parag/bl_iot_sdk/customer_app/SWEMS/build_out/hal_drv/libhal_drv.a(bl_rtc.o)
                0x000000002300351c                bl_rtc_get_counter
 .text.bl_rtc_get_timestamp_ms
                0x0000000023003532       0x4e /home/parag/bl_iot_sdk/customer_app/SWEMS/build_out/hal_drv/libhal_drv.a(bl_rtc.o)
                0x0000000023003532                bl_rtc_get_timestamp_ms
 .text.UART_GetTxFifoCount
                0x0000000023003580       0x18 /home/parag/bl_iot_sdk/customer_app/SWEMS/build_out/bl602_std/libbl602_std.a(bl602_uart.o)
                0x0000000023003580                UART_GetTxFifoCount
 .text          0x0000000023003598       0xf4 /home/parag/bl_iot_sdk/toolchain/riscv/Linux/bin/../lib/gcc/riscv64-unknown-elf/8.3.0/../../../../riscv64-unknown-elf/lib/rv32imf/ilp32f/libm.a(lib_a-s_modf.o)
                0x0000000023003598                modf
 .text          0x000000002300368c       0x4c /home/parag/bl_iot_sdk/toolchain/riscv/Linux/bin/../lib/gcc/riscv64-unknown-elf/8.3.0/rv32imf/ilp32f/libgcc.a(_clzsi2.o)
                0x000000002300368c                __clzsi2
 .text          0x00000000230036d8      0x434 /home/parag/bl_iot_sdk/toolchain/riscv/Linux/bin/../lib/gcc/riscv64-unknown-elf/8.3.0/rv32imf/ilp32f/libgcc.a(_udivdi3.o)
                0x00000000230036d8                __udivdi3
 .text          0x0000000023003b0c      0x410 /home/parag/bl_iot_sdk/toolchain/riscv/Linux/bin/../lib/gcc/riscv64-unknown-elf/8.3.0/rv32imf/ilp32f/libgcc.a(_umoddi3.o)
                0x0000000023003b0c                __umoddi3
 .text          0x0000000023003f1c      0xb50 /home/parag/bl_iot_sdk/toolchain/riscv/Linux/bin/../lib/gcc/riscv64-unknown-elf/8.3.0/rv32imf/ilp32f/libgcc.a(adddf3.o)
                0x0000000023003f1c                __adddf3
 .text          0x0000000023004a6c      0x8ac /home/parag/bl_iot_sdk/toolchain/riscv/Linux/bin/../lib/gcc/riscv64-unknown-elf/8.3.0/rv32imf/ilp32f/libgcc.a(divdf3.o)
                0x0000000023004a6c                __divdf3
 .text          0x0000000023005318       0xc8 /home/parag/bl_iot_sdk/toolchain/riscv/Linux/bin/../lib/gcc/riscv64-unknown-elf/8.3.0/rv32imf/ilp32f/libgcc.a(eqdf2.o)
                0x0000000023005318                __eqdf2
                0x0000000023005318                __nedf2
 .text          0x00000000230053e0       0xec /home/parag/bl_iot_sdk/toolchain/riscv/Linux/bin/../lib/gcc/riscv64-unknown-elf/8.3.0/rv32imf/ilp32f/libgcc.a(gedf2.o)
                0x00000000230053e0                __gtdf2
                0x00000000230053e0                __gedf2
 .text          0x00000000230054cc       0xec /home/parag/bl_iot_sdk/toolchain/riscv/Linux/bin/../lib/gcc/riscv64-unknown-elf/8.3.0/rv32imf/ilp32f/libgcc.a(ledf2.o)
                0x00000000230054cc                __ltdf2
                0x00000000230054cc                __ledf2
 .text          0x00000000230055b8      0x79c /home/parag/bl_iot_sdk/toolchain/riscv/Linux/bin/../lib/gcc/riscv64-unknown-elf/8.3.0/rv32imf/ilp32f/libgcc.a(muldf3.o)
                0x00000000230055b8                __muldf3
 .text          0x0000000023005d54      0xb38 /home/parag/bl_iot_sdk/toolchain/riscv/Linux/bin/../lib/gcc/riscv64-unknown-elf/8.3.0/rv32imf/ilp32f/libgcc.a(subdf3.o)
                0x0000000023005d54                __subdf3
 .text          0x000000002300688c       0xfc /home/parag/bl_iot_sdk/toolchain/riscv/Linux/bin/../lib/gcc/riscv64-unknown-elf/8.3.0/rv32imf/ilp32f/libgcc.a(fixdfsi.o)
                0x000000002300688c                __fixdfsi
 .text          0x0000000023006988      0x11c /home/parag/bl_iot_sdk/toolchain/riscv/Linux/bin/../lib/gcc/riscv64-unknown-elf/8.3.0/../../../../riscv64-unknown-elf/lib/rv32imf/ilp32f/libc.a(lib_a-memcpy.o)
                0x0000000023006988                memcpy
 .text          0x0000000023006aa4       0xdc /home/parag/bl_iot_sdk/toolchain/riscv/Linux/bin/../lib/gcc/riscv64-unknown-elf/8.3.0/../../../../riscv64-unknown-elf/lib/rv32imf/ilp32f/libc.a(lib_a-memset.o)
                0x0000000023006aa4                memset
 .text          0x0000000023006b80       0x8c /home/parag/bl_iot_sdk/toolchain/riscv/Linux/bin/../lib/gcc/riscv64-unknown-elf/8.3.0/../../../../riscv64-unknown-elf/lib/rv32imf/ilp32f/libc.a(lib_a-strlen.o)
                0x0000000023006b80                strlen
 .text          0x0000000023006c0c       0x44 /home/parag/bl_iot_sdk/toolchain/riscv/Linux/bin/../lib/gcc/riscv64-unknown-elf/8.3.0/../../../../riscv64-unknown-elf/lib/rv32imf/ilp32f/libc.a(lib_a-strnlen.o)
                0x0000000023006c0c                strnlen
 *(.gnu.linkonce.t.*)

.rodata         0x0000000023006c50      0x734
 *(.rdata)
 *(.rodata .rodata.*)
 .rodata.bfl_main.str1.4
                0x0000000023006c50        0x7 /home/parag/bl_iot_sdk/customer_app/SWEMS/build_out/SWEMS/libSWEMS.a(main.o)
 *fill*         0x0000000023006c57        0x1 
 .rodata.vTaskStartScheduler.str1.4
                0x0000000023006c58        0x5 /home/parag/bl_iot_sdk/customer_app/SWEMS/build_out/freertos_riscv_ram/libfreertos_riscv_ram.a(tasks.o)
 *fill*         0x0000000023006c5d        0x3 
 .rodata.prvTimerTask
                0x0000000023006c60       0x28 /home/parag/bl_iot_sdk/customer_app/SWEMS/build_out/freertos_riscv_ram/libfreertos_riscv_ram.a(timers.o)
 .rodata.prvCheckForValidListAndQueue.str1.4
                0x0000000023006c88        0x5 /home/parag/bl_iot_sdk/customer_app/SWEMS/build_out/freertos_riscv_ram/libfreertos_riscv_ram.a(timers.o)
 *fill*         0x0000000023006c8d        0x3 
 .rodata.xTimerCreateTimerTask.str1.4
                0x0000000023006c90        0x8 /home/parag/bl_iot_sdk/customer_app/SWEMS/build_out/freertos_riscv_ram/libfreertos_riscv_ram.a(timers.o)
 .rodata.exception_entry
                0x0000000023006c98       0x40 /home/parag/bl_iot_sdk/customer_app/SWEMS/build_out/hal_drv/libhal_drv.a(bl_irq.o)
 .rodata.exception_entry.str1.4
                0x0000000023006cd8      0x26c /home/parag/bl_iot_sdk/customer_app/SWEMS/build_out/hal_drv/libhal_drv.a(bl_irq.o)
 .rodata.interrupt_entry.str1.4
                0x0000000023006f44       0x40 /home/parag/bl_iot_sdk/customer_app/SWEMS/build_out/hal_drv/libhal_drv.a(bl_irq.o)
 .rodata.vApplicationStackOverflowHook.str1.4
                0x0000000023006f84       0x2c /home/parag/bl_iot_sdk/customer_app/SWEMS/build_out/SWEMS/libSWEMS.a(freertos.o)
 .rodata.vsnprintf
                0x0000000023006fb0      0x1f4 /home/parag/bl_iot_sdk/customer_app/SWEMS/build_out/bl602/libbl602.a(debug.o)
 *fill*         0x00000000230071a4        0x4 
 .rodata.cvt.cst8
                0x00000000230071a8       0x18 /home/parag/bl_iot_sdk/customer_app/SWEMS/build_out/bl602/libbl602.a(debug.o)
 .rodata.lcdigits.2256
                0x00000000230071c0       0x11 /home/parag/bl_iot_sdk/customer_app/SWEMS/build_out/bl602/libbl602.a(debug.o)
 *fill*         0x00000000230071d1        0x3 
 .rodata.ucdigits.2257
                0x00000000230071d4       0x11 /home/parag/bl_iot_sdk/customer_app/SWEMS/build_out/bl602/libbl602.a(debug.o)
 *fill*         0x00000000230071e5        0x3 
 .rodata.vsnprintf.str1.4
                0x00000000230071e8        0x8 /home/parag/bl_iot_sdk/customer_app/SWEMS/build_out/bl602/libbl602.a(debug.o)
                                          0x7 (size before relaxing)
 .rodata        0x00000000230071f0       0x3c /home/parag/bl_iot_sdk/toolchain/riscv/Linux/bin/../lib/gcc/riscv64-unknown-elf/8.3.0/rv32imf/ilp32f/libgcc.a(divdf3.o)
 .rodata        0x000000002300722c       0x3c /home/parag/bl_iot_sdk/toolchain/riscv/Linux/bin/../lib/gcc/riscv64-unknown-elf/8.3.0/rv32imf/ilp32f/libgcc.a(muldf3.o)
 .rodata        0x0000000023007268      0x100 /home/parag/bl_iot_sdk/toolchain/riscv/Linux/bin/../lib/gcc/riscv64-unknown-elf/8.3.0/rv32imf/ilp32f/libgcc.a(_clz.o)
                0x0000000023007268                __clz_tab
 *(.sdata2.*)
 .sdata2.pullMachineTimerCompareRegister
                0x0000000023007368        0x4 /home/parag/bl_iot_sdk/customer_app/SWEMS/build_out/freertos_riscv_ram/libfreertos_riscv_ram.a(port.o)
                0x0000000023007368                pullMachineTimerCompareRegister
 .sdata2.uxTimerIncrementsForOneTick
                0x000000002300736c        0x4 /home/parag/bl_iot_sdk/customer_app/SWEMS/build_out/freertos_riscv_ram/libfreertos_riscv_ram.a(port.o)
                0x000000002300736c                uxTimerIncrementsForOneTick
 .sdata2.xISRStackTop
                0x0000000023007370        0x4 /home/parag/bl_iot_sdk/customer_app/SWEMS/build_out/freertos_riscv_ram/libfreertos_riscv_ram.a(port.o)
                0x0000000023007370                xISRStackTop
 .sdata2.uartAddr
                0x0000000023007374        0x8 /home/parag/bl_iot_sdk/customer_app/SWEMS/build_out/hal_drv/libhal_drv.a(bl_uart.o)
 .sdata2.uartAddr
                0x000000002300737c        0x8 /home/parag/bl_iot_sdk/customer_app/SWEMS/build_out/bl602_std/libbl602_std.a(bl602_uart.o)
                0x0000000023007384                . = ALIGN (0x4)
                0x0000000023007384                _bl_static_cli_cmds_start = .
 *(.static_cli_cmds)
 *(.static_cli_cmds)
                0x0000000023007384                _bl_static_cli_cmds_end = .
                0x0000000023007384                . = ALIGN (0x4)
                0x0000000023007384                _bl_static_fw_cfg_entry_start = .
 *(.wifi.cfg.entry)
                0x0000000023007384                _bl_static_fw_cfg_entry_end = .
                0x0000000023007384                . = ALIGN (0x4)
                0x0000000023007384                _bl_static_blogcomponent_code_start = .
 SORT_BY_NAME(*)(.static_blogcomponent_code*)
 *(.static_blogcomponent_code*)
                0x0000000023007384                _bl_static_blogcomponent_code_end = .
                0x0000000023007384                . = ALIGN (0x4)
                0x0000000023007384                _bl_static_blogfile_code_start = .
 SORT_BY_NAME(*)(.static_blogfile_code*)
 *(.static_blogfile_code*)
                0x0000000023007384                _bl_static_blogfile_code_end = .
                0x0000000023007384                . = ALIGN (0x4)
                0x0000000023007384                _bl_static_blogpri_code_start = .
 SORT_BY_NAME(*)(.static_blogpri_code*)
 *(.static_blogpri_code*)
                0x0000000023007384                _bl_static_blogpri_code_end = .
 *(.gnu.linkonce.r.*)
                0x0000000023007384                . = ALIGN (0x4)
                0x0000000023007384                _rom_framework_audio_device_start = .
 *(.framework.audio_device)
                0x0000000023007384                _rom_framework_audio_device_end = .

.rela.dyn       0x0000000023007384        0x0
 .rela.init     0x0000000023007384        0x0 /home/parag/bl_iot_sdk/customer_app/SWEMS/build_out/bl602/libbl602.a(start.o)
 .rela.text.hal_boot2_get_flash_addr
                0x0000000023007384        0x0 /home/parag/bl_iot_sdk/customer_app/SWEMS/build_out/bl602/libbl602.a(start.o)
 .rela.text.xPortStartScheduler
                0x0000000023007384        0x0 /home/parag/bl_iot_sdk/customer_app/SWEMS/build_out/bl602/libbl602.a(start.o)
 .rela.sdata2.xISRStackTop
                0x0000000023007384        0x0 /home/parag/bl_iot_sdk/customer_app/SWEMS/build_out/bl602/libbl602.a(start.o)
 .rela.text.vQueueAddToRegistry
                0x0000000023007384        0x0 /home/parag/bl_iot_sdk/customer_app/SWEMS/build_out/bl602/libbl602.a(start.o)
 .rela.text.exception_entry
                0x0000000023007384        0x0 /home/parag/bl_iot_sdk/customer_app/SWEMS/build_out/bl602/libbl602.a(start.o)

.preinit_array  0x0000000023007384        0x0
                0x0000000023007384                . = ALIGN (0x4)
                0x0000000023007384                __preinit_array_start = .
 *(.preinit_array)
                0x0000000023007384                __preinit_array_end = .

.init_array     0x0000000023007384        0x0
                0x0000000023007384                . = ALIGN (0x4)
                0x0000000023007384                __init_array_start = .
 *(SORT_BY_INIT_PRIORITY(.init_array.*))
 *(.init_array)
                0x0000000023007384                __init_array_end = .

.wifibss        0x0000000042042000        0x0
                0x0000000042042000                PROVIDE (__wifi_bss_start = ADDR (.wifibss))
                0x0000000042042000                PROVIDE (__wifi_bss_end = (ADDR (.wifibss) + SIZEOF (.wifibss)))
 *ipc_shared.o(COMMON)
 *sdu_shared.o(COMMON)
 *hal_desc.o(COMMON)
 *txl_buffer_shared.o(COMMON)
 *txl_frame_shared.o(COMMON)
 *scan_shared.o(COMMON)
 *scanu_shared.o(COMMON)
 *mfp_bip.o(COMMON)
 *me_mic.o(COMMON)
 *bl_sta_mgmt_others.o(COMMON)
 *bl_pmk_mgmt.o(COMMON)
 *bl_pmk_mgmt_internal.o(COMMON)
 *libwifi_drv.a:bl_utils.o(COMMON)
 *libwifi_drv.a:bl_utils.o(.bss*)
 *(.wifi_ram*)
                0x0000000042042000                . = ALIGN (0x10)
                [!provide]                        PROVIDE (_heap_wifi_start = .)
                [!provide]                        PROVIDE (_heap_wifi_size = ((ORIGIN (ram_wifi) + LENGTH (ram_wifi)) - _heap_wifi_start))

.romdata        0x000000004200c000      0x498 load address 0x0000000023007384
                [!provide]                        PROVIDE (__global_pointer_head$ = .)
                0x000000004200c7f0                PROVIDE (__global_pointer$ = (. + 0x7f0))
                0x000000004200c498                . = (. + 0x498)
 *fill*         0x000000004200c000      0x498 

.data           0x000000004200c498      0x560 load address 0x0000000023007384
                0x0000000023007384                PROVIDE (_data_load = LOADADDR (.data))
                0x000000004200c498                PROVIDE (_data_run = ADDR (.data))
                0x000000004200c9f8                PROVIDE (_data_run_end = (ADDR (.data) + SIZEOF (.data)))
 *(.tcm_code)
 .tcm_code      0x000000004200c498      0x550 /home/parag/bl_iot_sdk/customer_app/SWEMS/build_out/bl602_std/libbl602_std.a(bl602_romapi.o)
                0x000000004200c498                AON_Power_On_BG
                0x000000004200c4a2                AON_Power_Off_BG
                0x000000004200c4ac                AON_Power_On_LDO11_SOC
                0x000000004200c4b6                AON_Power_Off_LDO11_SOC
                0x000000004200c4c0                AON_Power_On_LDO15_RF
                0x000000004200c4ca                AON_Power_Off_LDO15_RF
                0x000000004200c4d4                AON_Power_On_SFReg
                0x000000004200c4de                AON_Power_Off_SFReg
                0x000000004200c4e8                AON_LowPower_Enter_PDS0
                0x000000004200c4f2                AON_LowPower_Exit_PDS0
                0x000000004200c4fc                ASM_Delay_Us
                0x000000004200c506                BL602_Delay_US
                0x000000004200c510                BL602_Delay_MS
                0x000000004200c51a                BL602_MemCpy
                0x000000004200c524                BL602_MemCpy4
                0x000000004200c52e                BL602_MemCpy_Fast
                0x000000004200c538                BL602_MemSet
                0x000000004200c542                BL602_MemSet4
                0x000000004200c54c                BL602_MemCmp
                0x000000004200c556                EF_Ctrl_Sw_AHB_Clk_0
                0x000000004200c560                EF_Ctrl_Program_Efuse_0
                0x000000004200c56a                EF_Ctrl_Load_Efuse_R0
                0x000000004200c574                EF_Ctrl_Busy
                0x000000004200c57e                EF_Ctrl_AutoLoad_Done
                0x000000004200c588                EF_Ctrl_Clear
                0x000000004200c592                GLB_SW_System_Reset
                0x000000004200c59c                GLB_SW_CPU_Reset
                0x000000004200c5a6                GLB_SW_POR_Reset
                0x000000004200c5b0                GLB_Select_Internal_Flash
                0x000000004200c5ba                GLB_Select_External_Flash
                0x000000004200c5c4                GLB_Deswap_Flash_Pin
                0x000000004200c5ce                GLB_Swap_Flash_Pin
                0x000000004200c5d8                GLB_GPIO_Init
                0x000000004200c5e2                GLB_GPIO_OUTPUT_Enable
                0x000000004200c5ec                GLB_GPIO_OUTPUT_Disable
                0x000000004200c5f6                GLB_GPIO_Set_HZ
                0x000000004200c600                GLB_GPIO_Get_Fun
                0x000000004200c60a                HBN_Mode_Enter
                0x000000004200c614                HBN_Power_Down_Flash
                0x000000004200c61e                HBN_Enable
                0x000000004200c628                HBN_Reset
                0x000000004200c632                HBN_Set_Ldo11_Aon_Vout
                0x000000004200c63c                HBN_Set_Ldo11_Rt_Vout
                0x000000004200c646                HBN_Set_Ldo11_Soc_Vout
                0x000000004200c650                HBN_Hw_Pu_Pd_Cfg
                0x000000004200c65a                HBN_Pin_WakeUp_Mask
                0x000000004200c664                HBN_GPIO7_Dbg_Pull_Cfg
                0x000000004200c66e                HBN_Set_Embedded_Flash_Pullup
                0x000000004200c678                L1C_Set_Wrap
                0x000000004200c682                L1C_Set_Way_Disable
                0x000000004200c68c                L1C_IROM_2T_Access_Set
                0x000000004200c696                PDS_Reset
                0x000000004200c6a0                PDS_Force_Config
                0x000000004200c6aa                PDS_RAM_Config
                0x000000004200c6b4                PDS_Default_Level_Config
                0x000000004200c6be                SEC_Eng_Turn_On_Sec_Ring
                0x000000004200c6c8                SEC_Eng_Turn_Off_Sec_Ring
                0x000000004200c6d2                SFlash_Init
                0x000000004200c6dc                SFlash_SetSPIMode
                0x000000004200c6e6                SFlash_Read_Reg
                0x000000004200c6f0                SFlash_Write_Reg
                0x000000004200c6fa                SFlash_Busy
                0x000000004200c704                SFlash_Write_Enable
                0x000000004200c70e                SFlash_Qspi_Enable
                0x000000004200c718                SFlash_Volatile_Reg_Write_Enable
                0x000000004200c722                SFlash_Chip_Erase
                0x000000004200c72c                SFlash_Sector_Erase
                0x000000004200c736                SFlash_Blk32_Erase
                0x000000004200c740                SFlash_Blk64_Erase
                0x000000004200c74a                SFlash_Erase
                0x000000004200c754                SFlash_Program
                0x000000004200c75e                SFlash_GetUniqueId
                0x000000004200c768                SFlash_GetJedecId
                0x000000004200c772                SFlash_GetDeviceId
                0x000000004200c77c                SFlash_Powerdown
                0x000000004200c786                SFlash_Releae_Powerdown
                0x000000004200c790                SFlash_SetBurstWrap
                0x000000004200c79a                SFlash_DisableBurstWrap
                0x000000004200c7a4                SFlash_Software_Reset
                0x000000004200c7ae                SFlash_Reset_Continue_Read
                0x000000004200c7b8                SFlash_Set_IDbus_Cfg
                0x000000004200c7c2                SFlash_IDbus_Read_Enable
                0x000000004200c7cc                SFlash_Cache_Enable_Set
                0x000000004200c7d6                SFlash_Cache_Flush
                0x000000004200c7e0                SFlash_Cache_Read_Enable
                0x000000004200c7ea                SFlash_Cache_Hit_Count_Get
                0x000000004200c7f4                SFlash_Cache_Miss_Count_Get
                0x000000004200c7fe                SFlash_Cache_Read_Disable
                0x000000004200c808                SFlash_Read
                0x000000004200c812                SFlash_Read_Reg_With_Cmd
                0x000000004200c81c                SFlash_Write_Reg_With_Cmd
                0x000000004200c826                SF_Cfg_Init_Ext_Flash_Gpio
                0x000000004200c830                SF_Cfg_Init_Internal_Flash_Gpio
                0x000000004200c83a                SF_Cfg_Deinit_Ext_Flash_Gpio
                0x000000004200c844                SF_Cfg_Restore_GPIO17_Fun
                0x000000004200c84e                SF_Cfg_Get_Flash_Cfg_Need_Lock
                0x000000004200c858                SF_Cfg_Init_Flash_Gpio
                0x000000004200c862                SF_Cfg_Flash_Identify
                0x000000004200c86c                SF_Ctrl_Enable
                0x000000004200c876                SF_Ctrl_Select_Pad
                0x000000004200c880                SF_Ctrl_Set_Owner
                0x000000004200c88a                SF_Ctrl_Disable
                0x000000004200c894                SF_Ctrl_AES_Enable_BE
                0x000000004200c89e                SF_Ctrl_AES_Enable_LE
                0x000000004200c8a8                SF_Ctrl_AES_Set_Region
                0x000000004200c8b2                SF_Ctrl_AES_Set_Key
                0x000000004200c8bc                SF_Ctrl_AES_Set_Key_BE
                0x000000004200c8c6                SF_Ctrl_AES_Set_IV
                0x000000004200c8d0                SF_Ctrl_AES_Set_IV_BE
                0x000000004200c8da                SF_Ctrl_AES_Enable
                0x000000004200c8e4                SF_Ctrl_AES_Disable
                0x000000004200c8ee                SF_Ctrl_Set_Flash_Image_Offset
                0x000000004200c8f8                SF_Ctrl_Get_Flash_Image_Offset
                0x000000004200c902                SF_Ctrl_Select_Clock
                0x000000004200c90c                SF_Ctrl_SendCmd
                0x000000004200c916                SF_Ctrl_Icache_Set
                0x000000004200c920                SF_Ctrl_Icache2_Set
                0x000000004200c92a                SF_Ctrl_GetBusyState
                0x000000004200c934                SF_Ctrl_Is_AES_Enable
                0x000000004200c93e                SF_Ctrl_Get_Clock_Delay
                0x000000004200c948                SF_Ctrl_Set_Clock_Delay
                0x000000004200c952                XIP_SFlash_State_Save
                0x000000004200c95c                XIP_SFlash_State_Restore
                0x000000004200c966                XIP_SFlash_Erase_Need_Lock
                0x000000004200c970                XIP_SFlash_Write_Need_Lock
                0x000000004200c97a                XIP_SFlash_Read_Need_Lock
                0x000000004200c984                XIP_SFlash_GetJedecId_Need_Lock
                0x000000004200c98e                XIP_SFlash_GetDeviceId_Need_Lock
                0x000000004200c998                XIP_SFlash_GetUniqueId_Need_Lock
                0x000000004200c9a2                XIP_SFlash_Read_Via_Cache_Need_Lock
                0x000000004200c9ac                XIP_SFlash_Read_With_Lock
                0x000000004200c9b6                XIP_SFlash_Write_With_Lock
                0x000000004200c9c0                XIP_SFlash_Erase_With_Lock
                0x000000004200c9ca                XIP_SFlash_Opt_Enter
                0x000000004200c9d4                XIP_SFlash_Opt_Exit
                0x000000004200c9de                BFLB_Soft_CRC32
 *(.tcm_const)
 *(.sclock_rlt_code)
 *(.sclock_rlt_const)
 *(.data .data.*)
 *(.gnu.linkonce.d.*)
 *(.sdata .sdata.*)
 .sdata.pTrapNetCounter
                0x000000004200c9e8        0x4 /home/parag/bl_iot_sdk/customer_app/SWEMS/build_out/freertos_riscv_ram/libfreertos_riscv_ram.a(port.o)
                0x000000004200c9e8                pTrapNetCounter
 .sdata.pullNextTime
                0x000000004200c9ec        0x4 /home/parag/bl_iot_sdk/customer_app/SWEMS/build_out/freertos_riscv_ram/libfreertos_riscv_ram.a(port.o)
                0x000000004200c9ec                pullNextTime
 .sdata.uxTopUsedPriority
                0x000000004200c9f0        0x4 /home/parag/bl_iot_sdk/customer_app/SWEMS/build_out/SWEMS/libSWEMS.a(freertos.o)
                0x000000004200c9f0                uxTopUsedPriority
 .sdata.sys_log_all_enable
                0x000000004200c9f4        0x1 /home/parag/bl_iot_sdk/customer_app/SWEMS/build_out/hal_drv/libhal_drv.a(bl_sys.o)
                0x000000004200c9f4                sys_log_all_enable
 *(.gnu.linkonce.s.*)
                0x000000004200c9f8                . = ALIGN (0x8)
 *fill*         0x000000004200c9f5        0x3 
 *(.srodata.cst16)
 *(.srodata.cst8)
 *(.srodata.cst4)
 *(.srodata.cst2)
 *(.srodata .srodata.*)
                0x000000004200c9f8                . = ALIGN (0x8)
 *(._k_queue.static.*)
 *(._k_sem.static.*)
 *(._k_mutex.static.*)
                0x000000004200c9f8                _net_buf_pool_list = .
 *(SORT_BY_NAME(._net_buf_pool.static.*))
                0x000000004200c9f8                _bt_gatt_service_static_list_start = .
 *(SORT_BY_NAME(._bt_gatt_service_static.static.*))
                0x000000004200c9f8                _bt_gatt_service_static_list_end = .
                0x000000004200c9f8                _bt_l2cap_fixed_chan_list_start = .
 *(SORT_BY_NAME(._bt_l2cap_fixed_chan.static.*))
                0x000000004200c9f8                _bt_l2cap_fixed_chan_list_end = .

.boot2          0x000000004200c9f8      0x258 load address 0x00000000230078e4
                0x000000004200c9f8                PROVIDE (__boot2_pt_addr_start = .)
 *(.bss.boot2_partition_table)
 .bss.boot2_partition_table
                0x000000004200c9f8      0x258 /home/parag/bl_iot_sdk/customer_app/SWEMS/build_out/hal_drv/libhal_drv.a(hal_boot2.o)
                0x000000004200cc50                PROVIDE (__boot2_pt_addr_end = .)
                0x000000004200cc50                PROVIDE (__boot2_flashCfg_start = .)
 *(.bss.boot2_flashCfg)
                0x000000004200cc50                PROVIDE (__boot2_flashCfg_end = .)

.bss            0x000000004200cc50     0x1334 load address 0x00000000230078e4
                0x000000004200cc50                PROVIDE (__bss_start = ADDR (.bss))
                0x000000004200df84                PROVIDE (__bss_end = (ADDR (.bss) + SIZEOF (.bss)))
 *(.sbss*)
 .sbss.pxCurrentTCB
                0x000000004200cc50        0x4 /home/parag/bl_iot_sdk/customer_app/SWEMS/build_out/freertos_riscv_ram/libfreertos_riscv_ram.a(tasks.o)
                0x000000004200cc50                pxCurrentTCB
 .sbss.pxDelayedTaskList
                0x000000004200cc54        0x4 /home/parag/bl_iot_sdk/customer_app/SWEMS/build_out/freertos_riscv_ram/libfreertos_riscv_ram.a(tasks.o)
 .sbss.pxOverflowDelayedTaskList
                0x000000004200cc58        0x4 /home/parag/bl_iot_sdk/customer_app/SWEMS/build_out/freertos_riscv_ram/libfreertos_riscv_ram.a(tasks.o)
 .sbss.uxCurrentNumberOfTasks
                0x000000004200cc5c        0x4 /home/parag/bl_iot_sdk/customer_app/SWEMS/build_out/freertos_riscv_ram/libfreertos_riscv_ram.a(tasks.o)
 .sbss.uxDeletedTasksWaitingCleanUp
                0x000000004200cc60        0x4 /home/parag/bl_iot_sdk/customer_app/SWEMS/build_out/freertos_riscv_ram/libfreertos_riscv_ram.a(tasks.o)
 .sbss.uxPendedTicks
                0x000000004200cc64        0x4 /home/parag/bl_iot_sdk/customer_app/SWEMS/build_out/freertos_riscv_ram/libfreertos_riscv_ram.a(tasks.o)
 .sbss.uxSchedulerSuspended
                0x000000004200cc68        0x4 /home/parag/bl_iot_sdk/customer_app/SWEMS/build_out/freertos_riscv_ram/libfreertos_riscv_ram.a(tasks.o)
 .sbss.uxTaskNumber
                0x000000004200cc6c        0x4 /home/parag/bl_iot_sdk/customer_app/SWEMS/build_out/freertos_riscv_ram/libfreertos_riscv_ram.a(tasks.o)
 .sbss.uxTopReadyPriority
                0x000000004200cc70        0x4 /home/parag/bl_iot_sdk/customer_app/SWEMS/build_out/freertos_riscv_ram/libfreertos_riscv_ram.a(tasks.o)
 .sbss.xNextTaskUnblockTime
                0x000000004200cc74        0x4 /home/parag/bl_iot_sdk/customer_app/SWEMS/build_out/freertos_riscv_ram/libfreertos_riscv_ram.a(tasks.o)
 .sbss.xNumOfOverflows
                0x000000004200cc78        0x4 /home/parag/bl_iot_sdk/customer_app/SWEMS/build_out/freertos_riscv_ram/libfreertos_riscv_ram.a(tasks.o)
 .sbss.xSchedulerRunning
                0x000000004200cc7c        0x4 /home/parag/bl_iot_sdk/customer_app/SWEMS/build_out/freertos_riscv_ram/libfreertos_riscv_ram.a(tasks.o)
 .sbss.xTickCount
                0x000000004200cc80        0x4 /home/parag/bl_iot_sdk/customer_app/SWEMS/build_out/freertos_riscv_ram/libfreertos_riscv_ram.a(tasks.o)
 .sbss.xYieldPending
                0x000000004200cc84        0x4 /home/parag/bl_iot_sdk/customer_app/SWEMS/build_out/freertos_riscv_ram/libfreertos_riscv_ram.a(tasks.o)
 .sbss.pxCurrentTimerList
                0x000000004200cc88        0x4 /home/parag/bl_iot_sdk/customer_app/SWEMS/build_out/freertos_riscv_ram/libfreertos_riscv_ram.a(timers.o)
 .sbss.pxOverflowTimerList
                0x000000004200cc8c        0x4 /home/parag/bl_iot_sdk/customer_app/SWEMS/build_out/freertos_riscv_ram/libfreertos_riscv_ram.a(timers.o)
 .sbss.xLastTime.2297
                0x000000004200cc90        0x4 /home/parag/bl_iot_sdk/customer_app/SWEMS/build_out/freertos_riscv_ram/libfreertos_riscv_ram.a(timers.o)
 .sbss.xTimerQueue
                0x000000004200cc94        0x4 /home/parag/bl_iot_sdk/customer_app/SWEMS/build_out/freertos_riscv_ram/libfreertos_riscv_ram.a(timers.o)
 .sbss.xTimerTaskHandle
                0x000000004200cc98        0x4 /home/parag/bl_iot_sdk/customer_app/SWEMS/build_out/freertos_riscv_ram/libfreertos_riscv_ram.a(timers.o)
 .sbss.TrapNetCounter
                0x000000004200cc9c        0x4 /home/parag/bl_iot_sdk/customer_app/SWEMS/build_out/freertos_riscv_ram/libfreertos_riscv_ram.a(port.o)
                0x000000004200cc9c                TrapNetCounter
 .sbss.ullNextTime
                0x000000004200cca0        0x8 /home/parag/bl_iot_sdk/customer_app/SWEMS/build_out/freertos_riscv_ram/libfreertos_riscv_ram.a(port.o)
                0x000000004200cca0                ullNextTime
 .sbss.pxEnd    0x000000004200cca8        0x4 /home/parag/bl_iot_sdk/customer_app/SWEMS/build_out/freertos_riscv_ram/libfreertos_riscv_ram.a(heap_5.o)
 .sbss.xBlockAllocatedBit
                0x000000004200ccac        0x4 /home/parag/bl_iot_sdk/customer_app/SWEMS/build_out/freertos_riscv_ram/libfreertos_riscv_ram.a(heap_5.o)
 .sbss.xFreeBytesRemaining
                0x000000004200ccb0        0x4 /home/parag/bl_iot_sdk/customer_app/SWEMS/build_out/freertos_riscv_ram/libfreertos_riscv_ram.a(heap_5.o)
 .sbss.xStart   0x000000004200ccb4        0x8 /home/parag/bl_iot_sdk/customer_app/SWEMS/build_out/freertos_riscv_ram/libfreertos_riscv_ram.a(heap_5.o)
 .sbss.init_tick_rtc
                0x000000004200ccbc        0x4 /home/parag/bl_iot_sdk/customer_app/SWEMS/build_out/bltime/libbltime.a(bl_sys_time.o)
 .sbss.init_tick_rtos
                0x000000004200ccc0        0x4 /home/parag/bl_iot_sdk/customer_app/SWEMS/build_out/bltime/libbltime.a(bl_sys_time.o)
 .sbss.sync_init
                0x000000004200ccc4        0x4 /home/parag/bl_iot_sdk/customer_app/SWEMS/build_out/bltime/libbltime.a(bl_sys_time.o)
 *(.gnu.linkonce.sb.*)
 *(.bss .bss.*)
 .bss.buzzer_stack.2382
                0x000000004200ccc8      0x180 /home/parag/bl_iot_sdk/customer_app/SWEMS/build_out/SWEMS/libSWEMS.a(main.o)
 .bss.buzzer_task.2383
                0x000000004200ce48       0x60 /home/parag/bl_iot_sdk/customer_app/SWEMS/build_out/SWEMS/libSWEMS.a(main.o)
 .bss.pxReadyTasksLists
                0x000000004200cea8      0x280 /home/parag/bl_iot_sdk/customer_app/SWEMS/build_out/freertos_riscv_ram/libfreertos_riscv_ram.a(tasks.o)
 .bss.xDelayedTaskList1
                0x000000004200d128       0x14 /home/parag/bl_iot_sdk/customer_app/SWEMS/build_out/freertos_riscv_ram/libfreertos_riscv_ram.a(tasks.o)
 .bss.xDelayedTaskList2
                0x000000004200d13c       0x14 /home/parag/bl_iot_sdk/customer_app/SWEMS/build_out/freertos_riscv_ram/libfreertos_riscv_ram.a(tasks.o)
 .bss.xPendingReadyList
                0x000000004200d150       0x14 /home/parag/bl_iot_sdk/customer_app/SWEMS/build_out/freertos_riscv_ram/libfreertos_riscv_ram.a(tasks.o)
 .bss.xSuspendedTaskList
                0x000000004200d164       0x14 /home/parag/bl_iot_sdk/customer_app/SWEMS/build_out/freertos_riscv_ram/libfreertos_riscv_ram.a(tasks.o)
 .bss.xTasksWaitingTermination
                0x000000004200d178       0x14 /home/parag/bl_iot_sdk/customer_app/SWEMS/build_out/freertos_riscv_ram/libfreertos_riscv_ram.a(tasks.o)
 .bss.ucStaticTimerQueueStorage.2344
                0x000000004200d18c       0x40 /home/parag/bl_iot_sdk/customer_app/SWEMS/build_out/freertos_riscv_ram/libfreertos_riscv_ram.a(timers.o)
 .bss.xActiveTimerList1
                0x000000004200d1cc       0x14 /home/parag/bl_iot_sdk/customer_app/SWEMS/build_out/freertos_riscv_ram/libfreertos_riscv_ram.a(timers.o)
 .bss.xActiveTimerList2
                0x000000004200d1e0       0x14 /home/parag/bl_iot_sdk/customer_app/SWEMS/build_out/freertos_riscv_ram/libfreertos_riscv_ram.a(timers.o)
 .bss.xStaticTimerQueue.2343
                0x000000004200d1f4       0x50 /home/parag/bl_iot_sdk/customer_app/SWEMS/build_out/freertos_riscv_ram/libfreertos_riscv_ram.a(timers.o)
 .bss.handler_list
                0x000000004200d244      0x280 /home/parag/bl_iot_sdk/customer_app/SWEMS/build_out/hal_drv/libhal_drv.a(bl_irq.o)
 .bss.uxIdleTaskStack.2391
                0x000000004200d4c4      0x180 /home/parag/bl_iot_sdk/customer_app/SWEMS/build_out/SWEMS/libSWEMS.a(freertos.o)
 .bss.uxTimerTaskStack.2398
                0x000000004200d644      0x640 /home/parag/bl_iot_sdk/customer_app/SWEMS/build_out/SWEMS/libSWEMS.a(freertos.o)
 .bss.xIdleTaskTCB.2390
                0x000000004200dc84       0x60 /home/parag/bl_iot_sdk/customer_app/SWEMS/build_out/SWEMS/libSWEMS.a(freertos.o)
 .bss.xTimerTaskTCB.2397
                0x000000004200dce4       0x60 /home/parag/bl_iot_sdk/customer_app/SWEMS/build_out/SWEMS/libSWEMS.a(freertos.o)
 .bss.string    0x000000004200dd44      0x200 /home/parag/bl_iot_sdk/customer_app/SWEMS/build_out/bl602/libbl602.a(debug.o)
 *(.gnu.linkonce.b.*)
 *(COMMON)
 COMMON         0x000000004200df44       0x40 /home/parag/bl_iot_sdk/customer_app/SWEMS/build_out/freertos_riscv_ram/libfreertos_riscv_ram.a(queue.o)
                0x000000004200df44                xQueueRegistry
                [!provide]                        PROVIDE (_heap_start = .)
                [!provide]                        PROVIDE (_heap_size = (ADDR (.stack) - _heap_start))

.stack          0x0000000042041800      0x800
                0x0000000042042000                . = (. + __stack_size)
 *fill*         0x0000000042041800      0x800 
                0x0000000042042000                PROVIDE (_sp_main = .)
                0x0000000042042000                __freertos_irq_stack_top = .
                [!provide]                        PROVIDE (_ld_bl_static_cli_cmds_start = _bl_static_cli_cmds_start)
                [!provide]                        PROVIDE (_ld_bl_static_cli_cmds_end = _bl_static_cli_cmds_end)
                [!provide]                        PROVIDE (_ld_bl_static_cfg_entry_start = _bl_static_fw_cfg_entry_start)
                [!provide]                        PROVIDE (_ld_bl_static_cfg_entry_end = _bl_static_fw_cfg_entry_end)
                [!provide]                        PROVIDE (_ld_bl_static_blogcomponent_code_start = _bl_static_blogcomponent_code_start)
                [!provide]                        PROVIDE (_ld_bl_static_blogcomponent_code_end = _bl_static_blogcomponent_code_end)
                [!provide]                        PROVIDE (_ld_bl_static_blogfile_code_start = _bl_static_blogfile_code_start)
                [!provide]                        PROVIDE (_ld_bl_static_blogfile_code_end = _bl_static_blogfile_code_end)
                [!provide]                        PROVIDE (_ld_bl_static_blogpri_code_start = _bl_static_blogpri_code_start)
                [!provide]                        PROVIDE (_ld_bl_static_blogpri_code_end = _bl_static_blogpri_code_end)
                [!provide]                        PROVIDE (_ld_ram_size0 = LENGTH (flash))
                [!provide]                        PROVIDE (_ld_ram_addr0 = ORIGIN (flash))
                [!provide]                        PROVIDE (_ld_ram_size1 = LENGTH (ram_tcm))
                [!provide]                        PROVIDE (_ld_ram_addr1 = ORIGIN (ram_tcm))
                [!provide]                        PROVIDE (_ld_ram_size2 = LENGTH (ram_wifi))
                [!provide]                        PROVIDE (_ld_ram_addr2 = ORIGIN (ram_wifi))
                0x0000000042049c00                PROVIDE (__boot2_pt_addr_src = BOOT2_PT_ADDR)
                0x0000000042049c18                PROVIDE (__boot2_flashCfg_src = BOOT2_FLASHCFG_ADDR)
                [!provide]                        PROVIDE (xTaskGetTickCount = 0x21017694)
                [!provide]                        PROVIDE (xTaskGetTickCountFromISR = 0x210176aa)
                [!provide]                        PROVIDE (pvPortMalloc = 0x21019662)
                [!provide]                        PROVIDE (vPortFree = 0x2101973a)
                [!provide]                        PROVIDE (vTaskNotifyGiveFromISR = 0x210188e8)
                [!provide]                        PROVIDE (vTaskSwitchContext = 0x21017a04)
                [!provide]                        PROVIDE (ulTaskNotifyTake = 0x21018548)
                [!provide]                        PROVIDE (vTaskExitCritical = 0x210183f4)
                [!provide]                        PROVIDE (vTaskEnterCritical = 0x210183e4)
                [!provide]                        PROVIDE (xTaskGetCurrentTaskHandle = 0x21018152)
                [!provide]                        PROVIDE (xQueueSemaphoreTake = 0x21015ce8)
                [!provide]                        PROVIDE (xQueueGenericSend = 0x21015834)
                [!provide]                        PROVIDE (xQueueGenericSendFromISR = 0x21015a4c)
                [!provide]                        PROVIDE (xTaskCreateStatic = 0x210170a2)
                [!provide]                        PROVIDE (xTaskCreate = 0x2101713a)
                [!provide]                        PROVIDE (xQueueCreateMutex = 0x21015a1c)
                [!provide]                        PROVIDE (xQueueCreateMutexStatic = 0x21015994)
                [!provide]                        PROVIDE (vQueueDelete = 0x210161d8)
                [!provide]                        PROVIDE (xQueueGenericCreateStatic = 0x210156c2)
                [!provide]                        PROVIDE (xQueueGenericCreate = 0x21015744)
                [!provide]                        PROVIDE (xQueueReceive = 0x21015b8a)
                [!provide]                        PROVIDE (uxQueueMessagesWaiting = 0x21016168)
                [!provide]                        PROVIDE (vTaskDelay = 0x210179c6)
                [!provide]                        PROVIDE (vTaskDelayUntil = 0x21017952)
                [!provide]                        PROVIDE (xPortGetFreeHeapSize = 0x210197ce)
                [!provide]                        PROVIDE (vTaskList = 0x21018408)
                [!provide]                        PROVIDE (xTimerGenericCommand = 0x21018bec)
                [!provide]                        PROVIDE (xTimerCreateTimerTask = 0x21018a9e)
                [!provide]                        PROVIDE (xTimerCreate = 0x21018af6)
                [!provide]                        PROVIDE (xTimerCreateStatic = 0x21018b66)
                [!provide]                        PROVIDE (xQueueCreateCountingSemaphoreStatic = 0x210157c2)
                [!provide]                        PROVIDE (xQueueCreateCountingSemaphore = 0x21015800)
                [!provide]                        PROVIDE (pTrapNetCounter = __global_pointer_head$)
                [!provide]                        PROVIDE (TrapNetCounter = (__global_pointer_head$ + 0x58))
                [!provide]                        PROVIDE (vEventGroupDelete = 0x210153be)
                [!provide]                        PROVIDE (xEventGroupWaitBits = 0x21015086)
                [!provide]                        PROVIDE (xEventGroupCreateStatic = 0x21015000)
                [!provide]                        PROVIDE (xEventGroupSetBits = 0x210151e0)
                [!provide]                        PROVIDE (xStreamBufferGenericCreateStatic = 0x210165c0)
                [!provide]                        PROVIDE (xStreamBufferReceive = 0x210169ae)
                [!provide]                        PROVIDE (xStreamBufferSend = 0x210167a8)
                [!provide]                        PROVIDE (pvTimerGetTimerID = 0x21018fd4)
                [!provide]                        PROVIDE (xTaskGenericNotify = 0x210186be)
                [!provide]                        PROVIDE (xTaskGenericNotifyFromISR = 0x210187de)
                [!provide]                        PROVIDE (xQueueGiveMutexRecursive = 0x210159c8)
                [!provide]                        PROVIDE (xQueueTakeMutexRecursive = 0x21015e70)
                [!provide]                        PROVIDE (xTaskGetTickCount2 = 0x2101769a)
                [!provide]                        PROVIDE (xQueueGiveFromISR = 0x21015b0e)
                [!provide]                        PROVIDE (vTaskDelete = 0x210171b6)
                [!provide]                        PROVIDE (uxTaskGetStackHighWaterMark = 0x21018110)
                [!provide]                        PROVIDE (pcTaskGetName = 0x210176b6)
                [!provide]                        PROVIDE (vTaskStartScheduler = 0x21017610)
                [!provide]                        PROVIDE (vPortDefineHeapRegions = 0x210197da)
                0x0000000000000000                PROVIDE (__LD_CONFIG_EM_SEL = __EM_SIZE)
                [!provide]                        PROVIDE (_ld_symbol_rom_framework_audio_device_start = _rom_framework_audio_device_start)
                [!provide]                        PROVIDE (_ld_symbol_rom_framework_audio_device_end = _rom_framework_audio_device_end)
OUTPUT(/home/parag/bl_iot_sdk/customer_app/SWEMS/build_out/SWEMS.elf elf32-littleriscv)

.riscv.attributes
                0x0000000000000000       0x2b
 .riscv.attributes
                0x0000000000000000       0x29 /home/parag/bl_iot_sdk/customer_app/SWEMS/build_out/bl602/libbl602.a(start.o)
 .riscv.attributes
                0x0000000000000029       0x2b /home/parag/bl_iot_sdk/customer_app/SWEMS/build_out/hal_drv/libhal_drv.a(hal_boot2.o)
 .riscv.attributes
                0x0000000000000054       0x2b /home/parag/bl_iot_sdk/customer_app/SWEMS/build_out/SWEMS/libSWEMS.a(main.o)
 .riscv.attributes
                0x000000000000007f       0x2b /home/parag/bl_iot_sdk/customer_app/SWEMS/build_out/SWEMS/libSWEMS.a(buzzer.o)
 .riscv.attributes
                0x00000000000000aa       0x2b /home/parag/bl_iot_sdk/customer_app/SWEMS/build_out/freertos_riscv_ram/libfreertos_riscv_ram.a(tasks.o)
 .riscv.attributes
                0x00000000000000d5       0x2b /home/parag/bl_iot_sdk/customer_app/SWEMS/build_out/freertos_riscv_ram/libfreertos_riscv_ram.a(timers.o)
 .riscv.attributes
                0x0000000000000100       0x2b /home/parag/bl_iot_sdk/customer_app/SWEMS/build_out/freertos_riscv_ram/libfreertos_riscv_ram.a(port.o)
 .riscv.attributes
                0x000000000000012b       0x29 /home/parag/bl_iot_sdk/customer_app/SWEMS/build_out/freertos_riscv_ram/libfreertos_riscv_ram.a(portASM.o)
 .riscv.attributes
                0x0000000000000154       0x2b /home/parag/bl_iot_sdk/customer_app/SWEMS/build_out/freertos_riscv_ram/libfreertos_riscv_ram.a(heap_5.o)
 .riscv.attributes
                0x000000000000017f       0x2b /home/parag/bl_iot_sdk/customer_app/SWEMS/build_out/freertos_riscv_ram/libfreertos_riscv_ram.a(list.o)
 .riscv.attributes
                0x00000000000001aa       0x2b /home/parag/bl_iot_sdk/customer_app/SWEMS/build_out/freertos_riscv_ram/libfreertos_riscv_ram.a(queue.o)
 .riscv.attributes
                0x00000000000001d5       0x2b /home/parag/bl_iot_sdk/customer_app/SWEMS/build_out/hal_drv/libhal_drv.a(bl_irq.o)
 .riscv.attributes
                0x0000000000000200       0x2b /home/parag/bl_iot_sdk/customer_app/SWEMS/build_out/hal_drv/libhal_drv.a(bl_gpio.o)
 .riscv.attributes
                0x000000000000022b       0x2b /home/parag/bl_iot_sdk/customer_app/SWEMS/build_out/SWEMS/libSWEMS.a(freertos.o)
 .riscv.attributes
                0x0000000000000256       0x2b /home/parag/bl_iot_sdk/customer_app/SWEMS/build_out/bl602/libbl602.a(debug.o)
 .riscv.attributes
                0x0000000000000281       0x2b /home/parag/bl_iot_sdk/customer_app/SWEMS/build_out/bl602_std/libbl602_std.a(bl602_glb.o)
 .riscv.attributes
                0x00000000000002ac       0x2b /home/parag/bl_iot_sdk/customer_app/SWEMS/build_out/bl602_std/libbl602_std.a(bl602_hbn.o)
 .riscv.attributes
                0x00000000000002d7       0x2b /home/parag/bl_iot_sdk/customer_app/SWEMS/build_out/bl602_std/libbl602_std.a(bl602_romapi.o)
 .riscv.attributes
                0x0000000000000302       0x2b /home/parag/bl_iot_sdk/customer_app/SWEMS/build_out/bltime/libbltime.a(bl_sys_time.o)
 .riscv.attributes
                0x000000000000032d       0x2b /home/parag/bl_iot_sdk/customer_app/SWEMS/build_out/freertos_riscv_ram/libfreertos_riscv_ram.a(misaligned_ldst.o)
 .riscv.attributes
                0x0000000000000358       0x29 /home/parag/bl_iot_sdk/customer_app/SWEMS/build_out/freertos_riscv_ram/libfreertos_riscv_ram.a(fp_asm.o)
 .riscv.attributes
                0x0000000000000381       0x2b /home/parag/bl_iot_sdk/customer_app/SWEMS/build_out/freertos_riscv_ram/libfreertos_riscv_ram.a(panic_c.o)
 .riscv.attributes
                0x00000000000003ac       0x2b /home/parag/bl_iot_sdk/customer_app/SWEMS/build_out/hal_drv/libhal_drv.a(bl_uart.o)
 .riscv.attributes
                0x00000000000003d7       0x2b /home/parag/bl_iot_sdk/customer_app/SWEMS/build_out/hal_drv/libhal_drv.a(bl_sys.o)
 .riscv.attributes
                0x0000000000000402       0x2b /home/parag/bl_iot_sdk/customer_app/SWEMS/build_out/hal_drv/libhal_drv.a(bl_rtc.o)
 .riscv.attributes
                0x000000000000042d       0x2b /home/parag/bl_iot_sdk/customer_app/SWEMS/build_out/bl602_std/libbl602_std.a(bl602_uart.o)
 .riscv.attributes
                0x0000000000000458       0x26 /home/parag/bl_iot_sdk/toolchain/riscv/Linux/bin/../lib/gcc/riscv64-unknown-elf/8.3.0/../../../../riscv64-unknown-elf/lib/rv32imf/ilp32f/libm.a(lib_a-s_modf.o)
 .riscv.attributes
                0x000000000000047e       0x26 /home/parag/bl_iot_sdk/toolchain/riscv/Linux/bin/../lib/gcc/riscv64-unknown-elf/8.3.0/rv32imf/ilp32f/libgcc.a(_clzsi2.o)
 .riscv.attributes
                0x00000000000004a4       0x26 /home/parag/bl_iot_sdk/toolchain/riscv/Linux/bin/../lib/gcc/riscv64-unknown-elf/8.3.0/rv32imf/ilp32f/libgcc.a(_udivdi3.o)
 .riscv.attributes
                0x00000000000004ca       0x26 /home/parag/bl_iot_sdk/toolchain/riscv/Linux/bin/../lib/gcc/riscv64-unknown-elf/8.3.0/rv32imf/ilp32f/libgcc.a(_umoddi3.o)
 .riscv.attributes
                0x00000000000004f0       0x26 /home/parag/bl_iot_sdk/toolchain/riscv/Linux/bin/../lib/gcc/riscv64-unknown-elf/8.3.0/rv32imf/ilp32f/libgcc.a(adddf3.o)
 .riscv.attributes
                0x0000000000000516       0x26 /home/parag/bl_iot_sdk/toolchain/riscv/Linux/bin/../lib/gcc/riscv64-unknown-elf/8.3.0/rv32imf/ilp32f/libgcc.a(divdf3.o)
 .riscv.attributes
                0x000000000000053c       0x26 /home/parag/bl_iot_sdk/toolchain/riscv/Linux/bin/../lib/gcc/riscv64-unknown-elf/8.3.0/rv32imf/ilp32f/libgcc.a(eqdf2.o)
 .riscv.attributes
                0x0000000000000562       0x26 /home/parag/bl_iot_sdk/toolchain/riscv/Linux/bin/../lib/gcc/riscv64-unknown-elf/8.3.0/rv32imf/ilp32f/libgcc.a(gedf2.o)
 .riscv.attributes
                0x0000000000000588       0x26 /home/parag/bl_iot_sdk/toolchain/riscv/Linux/bin/../lib/gcc/riscv64-unknown-elf/8.3.0/rv32imf/ilp32f/libgcc.a(ledf2.o)
 .riscv.attributes
                0x00000000000005ae       0x26 /home/parag/bl_iot_sdk/toolchain/riscv/Linux/bin/../lib/gcc/riscv64-unknown-elf/8.3.0/rv32imf/ilp32f/libgcc.a(muldf3.o)
 .riscv.attributes
                0x00000000000005d4       0x26 /home/parag/bl_iot_sdk/toolchain/riscv/Linux/bin/../lib/gcc/riscv64-unknown-elf/8.3.0/rv32imf/ilp32f/libgcc.a(subdf3.o)
 .riscv.attributes
                0x00000000000005fa       0x26 /home/parag/bl_iot_sdk/toolchain/riscv/Linux/bin/../lib/gcc/riscv64-unknown-elf/8.3.0/rv32imf/ilp32f/libgcc.a(fixdfsi.o)
 .riscv.attributes
                0x0000000000000620       0x26 /home/parag/bl_iot_sdk/toolchain/riscv/Linux/bin/../lib/gcc/riscv64-unknown-elf/8.3.0/rv32imf/ilp32f/libgcc.a(_clz.o)
 .riscv.attributes
                0x0000000000000646       0x26 /home/parag/bl_iot_sdk/toolchain/riscv/Linux/bin/../lib/gcc/riscv64-unknown-elf/8.3.0/../../../../riscv64-unknown-elf/lib/rv32imf/ilp32f/libc.a(lib_a-memcpy.o)
 .riscv.attributes
                0x000000000000066c       0x24 /home/parag/bl_iot_sdk/toolchain/riscv/Linux/bin/../lib/gcc/riscv64-unknown-elf/8.3.0/../../../../riscv64-unknown-elf/lib/rv32imf/ilp32f/libc.a(lib_a-memset.o)
 .riscv.attributes
                0x0000000000000690       0x26 /home/parag/bl_iot_sdk/toolchain/riscv/Linux/bin/../lib/gcc/riscv64-unknown-elf/8.3.0/../../../../riscv64-unknown-elf/lib/rv32imf/ilp32f/libc.a(lib_a-strlen.o)
 .riscv.attributes
                0x00000000000006b6       0x26 /home/parag/bl_iot_sdk/toolchain/riscv/Linux/bin/../lib/gcc/riscv64-unknown-elf/8.3.0/../../../../riscv64-unknown-elf/lib/rv32imf/ilp32f/libc.a(lib_a-strnlen.o)

.comment        0x0000000000000000       0x28
 .comment       0x0000000000000000       0x28 /home/parag/bl_iot_sdk/customer_app/SWEMS/build_out/hal_drv/libhal_drv.a(hal_boot2.o)
                                         0x29 (size before relaxing)
 .comment       0x0000000000000028       0x29 /home/parag/bl_iot_sdk/customer_app/SWEMS/build_out/SWEMS/libSWEMS.a(main.o)
 .comment       0x0000000000000028       0x29 /home/parag/bl_iot_sdk/customer_app/SWEMS/build_out/SWEMS/libSWEMS.a(buzzer.o)
 .comment       0x0000000000000028       0x29 /home/parag/bl_iot_sdk/customer_app/SWEMS/build_out/freertos_riscv_ram/libfreertos_riscv_ram.a(tasks.o)
 .comment       0x0000000000000028       0x29 /home/parag/bl_iot_sdk/customer_app/SWEMS/build_out/freertos_riscv_ram/libfreertos_riscv_ram.a(timers.o)
 .comment       0x0000000000000028       0x29 /home/parag/bl_iot_sdk/customer_app/SWEMS/build_out/freertos_riscv_ram/libfreertos_riscv_ram.a(port.o)
 .comment       0x0000000000000028       0x29 /home/parag/bl_iot_sdk/customer_app/SWEMS/build_out/freertos_riscv_ram/libfreertos_riscv_ram.a(heap_5.o)
 .comment       0x0000000000000028       0x29 /home/parag/bl_iot_sdk/customer_app/SWEMS/build_out/freertos_riscv_ram/libfreertos_riscv_ram.a(list.o)
 .comment       0x0000000000000028       0x29 /home/parag/bl_iot_sdk/customer_app/SWEMS/build_out/freertos_riscv_ram/libfreertos_riscv_ram.a(queue.o)
 .comment       0x0000000000000028       0x29 /home/parag/bl_iot_sdk/customer_app/SWEMS/build_out/hal_drv/libhal_drv.a(bl_irq.o)
 .comment       0x0000000000000028       0x29 /home/parag/bl_iot_sdk/customer_app/SWEMS/build_out/hal_drv/libhal_drv.a(bl_gpio.o)
 .comment       0x0000000000000028       0x29 /home/parag/bl_iot_sdk/customer_app/SWEMS/build_out/SWEMS/libSWEMS.a(freertos.o)
 .comment       0x0000000000000028       0x29 /home/parag/bl_iot_sdk/customer_app/SWEMS/build_out/bl602/libbl602.a(debug.o)
 .comment       0x0000000000000028       0x29 /home/parag/bl_iot_sdk/customer_app/SWEMS/build_out/bl602_std/libbl602_std.a(bl602_glb.o)
 .comment       0x0000000000000028       0x29 /home/parag/bl_iot_sdk/customer_app/SWEMS/build_out/bl602_std/libbl602_std.a(bl602_hbn.o)
 .comment       0x0000000000000028       0x29 /home/parag/bl_iot_sdk/customer_app/SWEMS/build_out/bl602_std/libbl602_std.a(bl602_romapi.o)
 .comment       0x0000000000000028       0x29 /home/parag/bl_iot_sdk/customer_app/SWEMS/build_out/bltime/libbltime.a(bl_sys_time.o)
 .comment       0x0000000000000028       0x29 /home/parag/bl_iot_sdk/customer_app/SWEMS/build_out/freertos_riscv_ram/libfreertos_riscv_ram.a(misaligned_ldst.o)
 .comment       0x0000000000000028       0x29 /home/parag/bl_iot_sdk/customer_app/SWEMS/build_out/freertos_riscv_ram/libfreertos_riscv_ram.a(panic_c.o)
 .comment       0x0000000000000028       0x29 /home/parag/bl_iot_sdk/customer_app/SWEMS/build_out/hal_drv/libhal_drv.a(bl_uart.o)
 .comment       0x0000000000000028       0x29 /home/parag/bl_iot_sdk/customer_app/SWEMS/build_out/hal_drv/libhal_drv.a(bl_sys.o)
 .comment       0x0000000000000028       0x29 /home/parag/bl_iot_sdk/customer_app/SWEMS/build_out/hal_drv/libhal_drv.a(bl_rtc.o)
 .comment       0x0000000000000028       0x29 /home/parag/bl_iot_sdk/customer_app/SWEMS/build_out/bl602_std/libbl602_std.a(bl602_uart.o)
 .comment       0x0000000000000028       0x29 /home/parag/bl_iot_sdk/toolchain/riscv/Linux/bin/../lib/gcc/riscv64-unknown-elf/8.3.0/../../../../riscv64-unknown-elf/lib/rv32imf/ilp32f/libm.a(lib_a-s_modf.o)
 .comment       0x0000000000000028       0x29 /home/parag/bl_iot_sdk/toolchain/riscv/Linux/bin/../lib/gcc/riscv64-unknown-elf/8.3.0/rv32imf/ilp32f/libgcc.a(_clzsi2.o)
 .comment       0x0000000000000028       0x29 /home/parag/bl_iot_sdk/toolchain/riscv/Linux/bin/../lib/gcc/riscv64-unknown-elf/8.3.0/rv32imf/ilp32f/libgcc.a(_udivdi3.o)
 .comment       0x0000000000000028       0x29 /home/parag/bl_iot_sdk/toolchain/riscv/Linux/bin/../lib/gcc/riscv64-unknown-elf/8.3.0/rv32imf/ilp32f/libgcc.a(_umoddi3.o)
 .comment       0x0000000000000028       0x29 /home/parag/bl_iot_sdk/toolchain/riscv/Linux/bin/../lib/gcc/riscv64-unknown-elf/8.3.0/rv32imf/ilp32f/libgcc.a(adddf3.o)
 .comment       0x0000000000000028       0x29 /home/parag/bl_iot_sdk/toolchain/riscv/Linux/bin/../lib/gcc/riscv64-unknown-elf/8.3.0/rv32imf/ilp32f/libgcc.a(divdf3.o)
 .comment       0x0000000000000028       0x29 /home/parag/bl_iot_sdk/toolchain/riscv/Linux/bin/../lib/gcc/riscv64-unknown-elf/8.3.0/rv32imf/ilp32f/libgcc.a(eqdf2.o)
 .comment       0x0000000000000028       0x29 /home/parag/bl_iot_sdk/toolchain/riscv/Linux/bin/../lib/gcc/riscv64-unknown-elf/8.3.0/rv32imf/ilp32f/libgcc.a(gedf2.o)
 .comment       0x0000000000000028       0x29 /home/parag/bl_iot_sdk/toolchain/riscv/Linux/bin/../lib/gcc/riscv64-unknown-elf/8.3.0/rv32imf/ilp32f/libgcc.a(ledf2.o)
 .comment       0x0000000000000028       0x29 /home/parag/bl_iot_sdk/toolchain/riscv/Linux/bin/../lib/gcc/riscv64-unknown-elf/8.3.0/rv32imf/ilp32f/libgcc.a(muldf3.o)
 .comment       0x0000000000000028       0x29 /home/parag/bl_iot_sdk/toolchain/riscv/Linux/bin/../lib/gcc/riscv64-unknown-elf/8.3.0/rv32imf/ilp32f/libgcc.a(subdf3.o)
 .comment       0x0000000000000028       0x29 /home/parag/bl_iot_sdk/toolchain/riscv/Linux/bin/../lib/gcc/riscv64-unknown-elf/8.3.0/rv32imf/ilp32f/libgcc.a(fixdfsi.o)
 .comment       0x0000000000000028       0x29 /home/parag/bl_iot_sdk/toolchain/riscv/Linux/bin/../lib/gcc/riscv64-unknown-elf/8.3.0/rv32imf/ilp32f/libgcc.a(_clz.o)
 .comment       0x0000000000000028       0x29 /home/parag/bl_iot_sdk/toolchain/riscv/Linux/bin/../lib/gcc/riscv64-unknown-elf/8.3.0/../../../../riscv64-unknown-elf/lib/rv32imf/ilp32f/libc.a(lib_a-memcpy.o)
 .comment       0x0000000000000028       0x29 /home/parag/bl_iot_sdk/toolchain/riscv/Linux/bin/../lib/gcc/riscv64-unknown-elf/8.3.0/../../../../riscv64-unknown-elf/lib/rv32imf/ilp32f/libc.a(lib_a-strlen.o)
 .comment       0x0000000000000028       0x29 /home/parag/bl_iot_sdk/toolchain/riscv/Linux/bin/../lib/gcc/riscv64-unknown-elf/8.3.0/../../../../riscv64-unknown-elf/lib/rv32imf/ilp32f/libc.a(lib_a-strnlen.o)

.debug_line     0x0000000000000000    0x2409a
 .debug_line    0x0000000000000000      0x221 /home/parag/bl_iot_sdk/customer_app/SWEMS/build_out/bl602/libbl602.a(start.o)
 .debug_line    0x0000000000000221      0xd82 /home/parag/bl_iot_sdk/customer_app/SWEMS/build_out/hal_drv/libhal_drv.a(hal_boot2.o)
 .debug_line    0x0000000000000fa3      0x24f /home/parag/bl_iot_sdk/customer_app/SWEMS/build_out/SWEMS/libSWEMS.a(main.o)
 .debug_line    0x00000000000011f2      0x29b /home/parag/bl_iot_sdk/customer_app/SWEMS/build_out/SWEMS/libSWEMS.a(buzzer.o)
 .debug_line    0x000000000000148d     0x5eb1 /home/parag/bl_iot_sdk/customer_app/SWEMS/build_out/freertos_riscv_ram/libfreertos_riscv_ram.a(tasks.o)
 .debug_line    0x000000000000733e     0x16ed /home/parag/bl_iot_sdk/customer_app/SWEMS/build_out/freertos_riscv_ram/libfreertos_riscv_ram.a(timers.o)
 .debug_line    0x0000000000008a2b      0x30e /home/parag/bl_iot_sdk/customer_app/SWEMS/build_out/freertos_riscv_ram/libfreertos_riscv_ram.a(port.o)
 .debug_line    0x0000000000008d39      0x4d5 /home/parag/bl_iot_sdk/customer_app/SWEMS/build_out/freertos_riscv_ram/libfreertos_riscv_ram.a(portASM.o)
 .debug_line    0x000000000000920e      0xc69 /home/parag/bl_iot_sdk/customer_app/SWEMS/build_out/freertos_riscv_ram/libfreertos_riscv_ram.a(heap_5.o)
 .debug_line    0x0000000000009e77      0x5fc /home/parag/bl_iot_sdk/customer_app/SWEMS/build_out/freertos_riscv_ram/libfreertos_riscv_ram.a(list.o)
 .debug_line    0x000000000000a473     0x32cf /home/parag/bl_iot_sdk/customer_app/SWEMS/build_out/freertos_riscv_ram/libfreertos_riscv_ram.a(queue.o)
 .debug_line    0x000000000000d742      0x95e /home/parag/bl_iot_sdk/customer_app/SWEMS/build_out/hal_drv/libhal_drv.a(bl_irq.o)
 .debug_line    0x000000000000e0a0      0x797 /home/parag/bl_iot_sdk/customer_app/SWEMS/build_out/hal_drv/libhal_drv.a(bl_gpio.o)
 .debug_line    0x000000000000e837      0x433 /home/parag/bl_iot_sdk/customer_app/SWEMS/build_out/SWEMS/libSWEMS.a(freertos.o)
 .debug_line    0x000000000000ec6a     0x29de /home/parag/bl_iot_sdk/customer_app/SWEMS/build_out/bl602/libbl602.a(debug.o)
 .debug_line    0x0000000000011648     0x3a6c /home/parag/bl_iot_sdk/customer_app/SWEMS/build_out/bl602_std/libbl602_std.a(bl602_glb.o)
 .debug_line    0x00000000000150b4     0x223c /home/parag/bl_iot_sdk/customer_app/SWEMS/build_out/bl602_std/libbl602_std.a(bl602_hbn.o)
 .debug_line    0x00000000000172f0     0x197f /home/parag/bl_iot_sdk/customer_app/SWEMS/build_out/bl602_std/libbl602_std.a(bl602_romapi.o)
 .debug_line    0x0000000000018c6f      0x666 /home/parag/bl_iot_sdk/customer_app/SWEMS/build_out/bltime/libbltime.a(bl_sys_time.o)
 .debug_line    0x00000000000192d5      0xa2e /home/parag/bl_iot_sdk/customer_app/SWEMS/build_out/freertos_riscv_ram/libfreertos_riscv_ram.a(misaligned_ldst.o)
 .debug_line    0x0000000000019d03      0x1f9 /home/parag/bl_iot_sdk/customer_app/SWEMS/build_out/freertos_riscv_ram/libfreertos_riscv_ram.a(fp_asm.o)
 .debug_line    0x0000000000019efc      0x1d2 /home/parag/bl_iot_sdk/customer_app/SWEMS/build_out/freertos_riscv_ram/libfreertos_riscv_ram.a(panic_c.o)
 .debug_line    0x000000000001a0ce      0xee4 /home/parag/bl_iot_sdk/customer_app/SWEMS/build_out/hal_drv/libhal_drv.a(bl_uart.o)
 .debug_line    0x000000000001afb2      0x530 /home/parag/bl_iot_sdk/customer_app/SWEMS/build_out/hal_drv/libhal_drv.a(bl_sys.o)
 .debug_line    0x000000000001b4e2      0x368 /home/parag/bl_iot_sdk/customer_app/SWEMS/build_out/hal_drv/libhal_drv.a(bl_rtc.o)
 .debug_line    0x000000000001b84a     0x1915 /home/parag/bl_iot_sdk/customer_app/SWEMS/build_out/bl602_std/libbl602_std.a(bl602_uart.o)
 .debug_line    0x000000000001d15f      0x3ba /home/parag/bl_iot_sdk/toolchain/riscv/Linux/bin/../lib/gcc/riscv64-unknown-elf/8.3.0/rv32imf/ilp32f/libgcc.a(_clzsi2.o)
 .debug_line    0x000000000001d519      0x9fc /home/parag/bl_iot_sdk/toolchain/riscv/Linux/bin/../lib/gcc/riscv64-unknown-elf/8.3.0/rv32imf/ilp32f/libgcc.a(_udivdi3.o)
 .debug_line    0x000000000001df15      0xaac /home/parag/bl_iot_sdk/toolchain/riscv/Linux/bin/../lib/gcc/riscv64-unknown-elf/8.3.0/rv32imf/ilp32f/libgcc.a(_umoddi3.o)
 .debug_line    0x000000000001e9c1     0x141d /home/parag/bl_iot_sdk/toolchain/riscv/Linux/bin/../lib/gcc/riscv64-unknown-elf/8.3.0/rv32imf/ilp32f/libgcc.a(adddf3.o)
 .debug_line    0x000000000001fdde     0x10b7 /home/parag/bl_iot_sdk/toolchain/riscv/Linux/bin/../lib/gcc/riscv64-unknown-elf/8.3.0/rv32imf/ilp32f/libgcc.a(divdf3.o)
 .debug_line    0x0000000000020e95      0x2d6 /home/parag/bl_iot_sdk/toolchain/riscv/Linux/bin/../lib/gcc/riscv64-unknown-elf/8.3.0/rv32imf/ilp32f/libgcc.a(eqdf2.o)
 .debug_line    0x000000000002116b      0x30f /home/parag/bl_iot_sdk/toolchain/riscv/Linux/bin/../lib/gcc/riscv64-unknown-elf/8.3.0/rv32imf/ilp32f/libgcc.a(gedf2.o)
 .debug_line    0x000000000002147a      0x30f /home/parag/bl_iot_sdk/toolchain/riscv/Linux/bin/../lib/gcc/riscv64-unknown-elf/8.3.0/rv32imf/ilp32f/libgcc.a(ledf2.o)
 .debug_line    0x0000000000021789      0xe85 /home/parag/bl_iot_sdk/toolchain/riscv/Linux/bin/../lib/gcc/riscv64-unknown-elf/8.3.0/rv32imf/ilp32f/libgcc.a(muldf3.o)
 .debug_line    0x000000000002260e     0x1477 /home/parag/bl_iot_sdk/toolchain/riscv/Linux/bin/../lib/gcc/riscv64-unknown-elf/8.3.0/rv32imf/ilp32f/libgcc.a(subdf3.o)
 .debug_line    0x0000000000023a85      0x2dd /home/parag/bl_iot_sdk/toolchain/riscv/Linux/bin/../lib/gcc/riscv64-unknown-elf/8.3.0/rv32imf/ilp32f/libgcc.a(fixdfsi.o)
 .debug_line    0x0000000000023d62      0x338 /home/parag/bl_iot_sdk/toolchain/riscv/Linux/bin/../lib/gcc/riscv64-unknown-elf/8.3.0/rv32imf/ilp32f/libgcc.a(_clz.o)

.debug_info     0x0000000000000000    0x26d98
 .debug_info    0x0000000000000000       0x26 /home/parag/bl_iot_sdk/customer_app/SWEMS/build_out/bl602/libbl602.a(start.o)
 .debug_info    0x0000000000000026     0x14ed /home/parag/bl_iot_sdk/customer_app/SWEMS/build_out/hal_drv/libhal_drv.a(hal_boot2.o)
 .debug_info    0x0000000000001513      0xb44 /home/parag/bl_iot_sdk/customer_app/SWEMS/build_out/SWEMS/libSWEMS.a(main.o)
 .debug_info    0x0000000000002057      0xa08 /home/parag/bl_iot_sdk/customer_app/SWEMS/build_out/SWEMS/libSWEMS.a(buzzer.o)
 .debug_info    0x0000000000002a5f     0x3c7d /home/parag/bl_iot_sdk/customer_app/SWEMS/build_out/freertos_riscv_ram/libfreertos_riscv_ram.a(tasks.o)
 .debug_info    0x00000000000066dc     0x21b2 /home/parag/bl_iot_sdk/customer_app/SWEMS/build_out/freertos_riscv_ram/libfreertos_riscv_ram.a(timers.o)
 .debug_info    0x000000000000888e      0x292 /home/parag/bl_iot_sdk/customer_app/SWEMS/build_out/freertos_riscv_ram/libfreertos_riscv_ram.a(port.o)
 .debug_info    0x0000000000008b20       0x26 /home/parag/bl_iot_sdk/customer_app/SWEMS/build_out/freertos_riscv_ram/libfreertos_riscv_ram.a(portASM.o)
 .debug_info    0x0000000000008b46      0xd91 /home/parag/bl_iot_sdk/customer_app/SWEMS/build_out/freertos_riscv_ram/libfreertos_riscv_ram.a(heap_5.o)
 .debug_info    0x00000000000098d7      0xb7f /home/parag/bl_iot_sdk/customer_app/SWEMS/build_out/freertos_riscv_ram/libfreertos_riscv_ram.a(list.o)
 .debug_info    0x000000000000a456     0x2a58 /home/parag/bl_iot_sdk/customer_app/SWEMS/build_out/freertos_riscv_ram/libfreertos_riscv_ram.a(queue.o)
 .debug_info    0x000000000000ceae      0xef7 /home/parag/bl_iot_sdk/customer_app/SWEMS/build_out/hal_drv/libhal_drv.a(bl_irq.o)
 .debug_info    0x000000000000dda5     0x11f9 /home/parag/bl_iot_sdk/customer_app/SWEMS/build_out/hal_drv/libhal_drv.a(bl_gpio.o)
 .debug_info    0x000000000000ef9e      0xcbf /home/parag/bl_iot_sdk/customer_app/SWEMS/build_out/SWEMS/libSWEMS.a(freertos.o)
 .debug_info    0x000000000000fc5d     0x183d /home/parag/bl_iot_sdk/customer_app/SWEMS/build_out/bl602/libbl602.a(debug.o)
 .debug_info    0x000000000001149a     0x29ed /home/parag/bl_iot_sdk/customer_app/SWEMS/build_out/bl602_std/libbl602_std.a(bl602_glb.o)
 .debug_info    0x0000000000013e87     0x2302 /home/parag/bl_iot_sdk/customer_app/SWEMS/build_out/bl602_std/libbl602_std.a(bl602_hbn.o)
 .debug_info    0x0000000000016189     0x452e /home/parag/bl_iot_sdk/customer_app/SWEMS/build_out/bl602_std/libbl602_std.a(bl602_romapi.o)
 .debug_info    0x000000000001a6b7      0xc0b /home/parag/bl_iot_sdk/customer_app/SWEMS/build_out/bltime/libbltime.a(bl_sys_time.o)
 .debug_info    0x000000000001b2c2      0x752 /home/parag/bl_iot_sdk/customer_app/SWEMS/build_out/freertos_riscv_ram/libfreertos_riscv_ram.a(misaligned_ldst.o)
 .debug_info    0x000000000001ba14       0x26 /home/parag/bl_iot_sdk/customer_app/SWEMS/build_out/freertos_riscv_ram/libfreertos_riscv_ram.a(fp_asm.o)
 .debug_info    0x000000000001ba3a      0x97c /home/parag/bl_iot_sdk/customer_app/SWEMS/build_out/freertos_riscv_ram/libfreertos_riscv_ram.a(panic_c.o)
 .debug_info    0x000000000001c3b6     0x198e /home/parag/bl_iot_sdk/customer_app/SWEMS/build_out/hal_drv/libhal_drv.a(bl_uart.o)
 .debug_info    0x000000000001dd44      0xbce /home/parag/bl_iot_sdk/customer_app/SWEMS/build_out/hal_drv/libhal_drv.a(bl_sys.o)
 .debug_info    0x000000000001e912      0xa76 /home/parag/bl_iot_sdk/customer_app/SWEMS/build_out/hal_drv/libhal_drv.a(bl_rtc.o)
 .debug_info    0x000000000001f388     0x1929 /home/parag/bl_iot_sdk/customer_app/SWEMS/build_out/bl602_std/libbl602_std.a(bl602_uart.o)
 .debug_info    0x0000000000020cb1      0xbd7 /home/parag/bl_iot_sdk/toolchain/riscv/Linux/bin/../lib/gcc/riscv64-unknown-elf/8.3.0/rv32imf/ilp32f/libgcc.a(_clzsi2.o)
 .debug_info    0x0000000000021888     0x1245 /home/parag/bl_iot_sdk/toolchain/riscv/Linux/bin/../lib/gcc/riscv64-unknown-elf/8.3.0/rv32imf/ilp32f/libgcc.a(_udivdi3.o)
 .debug_info    0x0000000000022acd     0x12a3 /home/parag/bl_iot_sdk/toolchain/riscv/Linux/bin/../lib/gcc/riscv64-unknown-elf/8.3.0/rv32imf/ilp32f/libgcc.a(_umoddi3.o)
 .debug_info    0x0000000000023d70      0x5f2 /home/parag/bl_iot_sdk/toolchain/riscv/Linux/bin/../lib/gcc/riscv64-unknown-elf/8.3.0/rv32imf/ilp32f/libgcc.a(adddf3.o)
 .debug_info    0x0000000000024362      0x773 /home/parag/bl_iot_sdk/toolchain/riscv/Linux/bin/../lib/gcc/riscv64-unknown-elf/8.3.0/rv32imf/ilp32f/libgcc.a(divdf3.o)
 .debug_info    0x0000000000024ad5      0x29e /home/parag/bl_iot_sdk/toolchain/riscv/Linux/bin/../lib/gcc/riscv64-unknown-elf/8.3.0/rv32imf/ilp32f/libgcc.a(eqdf2.o)
 .debug_info    0x0000000000024d73      0x285 /home/parag/bl_iot_sdk/toolchain/riscv/Linux/bin/../lib/gcc/riscv64-unknown-elf/8.3.0/rv32imf/ilp32f/libgcc.a(gedf2.o)
 .debug_info    0x0000000000024ff8      0x285 /home/parag/bl_iot_sdk/toolchain/riscv/Linux/bin/../lib/gcc/riscv64-unknown-elf/8.3.0/rv32imf/ilp32f/libgcc.a(ledf2.o)
 .debug_info    0x000000000002527d      0x7ab /home/parag/bl_iot_sdk/toolchain/riscv/Linux/bin/../lib/gcc/riscv64-unknown-elf/8.3.0/rv32imf/ilp32f/libgcc.a(muldf3.o)
 .debug_info    0x0000000000025a28      0x5ec /home/parag/bl_iot_sdk/toolchain/riscv/Linux/bin/../lib/gcc/riscv64-unknown-elf/8.3.0/rv32imf/ilp32f/libgcc.a(subdf3.o)
 .debug_info    0x0000000000026014      0x21a /home/parag/bl_iot_sdk/toolchain/riscv/Linux/bin/../lib/gcc/riscv64-unknown-elf/8.3.0/rv32imf/ilp32f/libgcc.a(fixdfsi.o)
 .debug_info    0x000000000002622e      0xb6a /home/parag/bl_iot_sdk/toolchain/riscv/Linux/bin/../lib/gcc/riscv64-unknown-elf/8.3.0/rv32imf/ilp32f/libgcc.a(_clz.o)

.debug_abbrev   0x0000000000000000     0x614e
 .debug_abbrev  0x0000000000000000       0x14 /home/parag/bl_iot_sdk/customer_app/SWEMS/build_out/bl602/libbl602.a(start.o)
 .debug_abbrev  0x0000000000000014      0x3bb /home/parag/bl_iot_sdk/customer_app/SWEMS/build_out/hal_drv/libhal_drv.a(hal_boot2.o)
 .debug_abbrev  0x00000000000003cf      0x21c /home/parag/bl_iot_sdk/customer_app/SWEMS/build_out/SWEMS/libSWEMS.a(main.o)
 .debug_abbrev  0x00000000000005eb      0x22c /home/parag/bl_iot_sdk/customer_app/SWEMS/build_out/SWEMS/libSWEMS.a(buzzer.o)
 .debug_abbrev  0x0000000000000817      0x592 /home/parag/bl_iot_sdk/customer_app/SWEMS/build_out/freertos_riscv_ram/libfreertos_riscv_ram.a(tasks.o)
 .debug_abbrev  0x0000000000000da9      0x3f8 /home/parag/bl_iot_sdk/customer_app/SWEMS/build_out/freertos_riscv_ram/libfreertos_riscv_ram.a(timers.o)
 .debug_abbrev  0x00000000000011a1      0x154 /home/parag/bl_iot_sdk/customer_app/SWEMS/build_out/freertos_riscv_ram/libfreertos_riscv_ram.a(port.o)
 .debug_abbrev  0x00000000000012f5       0x14 /home/parag/bl_iot_sdk/customer_app/SWEMS/build_out/freertos_riscv_ram/libfreertos_riscv_ram.a(portASM.o)
 .debug_abbrev  0x0000000000001309      0x34c /home/parag/bl_iot_sdk/customer_app/SWEMS/build_out/freertos_riscv_ram/libfreertos_riscv_ram.a(heap_5.o)
 .debug_abbrev  0x0000000000001655      0x254 /home/parag/bl_iot_sdk/customer_app/SWEMS/build_out/freertos_riscv_ram/libfreertos_riscv_ram.a(list.o)
 .debug_abbrev  0x00000000000018a9      0x464 /home/parag/bl_iot_sdk/customer_app/SWEMS/build_out/freertos_riscv_ram/libfreertos_riscv_ram.a(queue.o)
 .debug_abbrev  0x0000000000001d0d      0x40c /home/parag/bl_iot_sdk/customer_app/SWEMS/build_out/hal_drv/libhal_drv.a(bl_irq.o)
 .debug_abbrev  0x0000000000002119      0x3bd /home/parag/bl_iot_sdk/customer_app/SWEMS/build_out/hal_drv/libhal_drv.a(bl_gpio.o)
 .debug_abbrev  0x00000000000024d6      0x283 /home/parag/bl_iot_sdk/customer_app/SWEMS/build_out/SWEMS/libSWEMS.a(freertos.o)
 .debug_abbrev  0x0000000000002759      0x4e5 /home/parag/bl_iot_sdk/customer_app/SWEMS/build_out/bl602/libbl602.a(debug.o)
 .debug_abbrev  0x0000000000002c3e      0x3d2 /home/parag/bl_iot_sdk/customer_app/SWEMS/build_out/bl602_std/libbl602_std.a(bl602_glb.o)
 .debug_abbrev  0x0000000000003010      0x37e /home/parag/bl_iot_sdk/customer_app/SWEMS/build_out/bl602_std/libbl602_std.a(bl602_hbn.o)
 .debug_abbrev  0x000000000000338e      0x396 /home/parag/bl_iot_sdk/customer_app/SWEMS/build_out/bl602_std/libbl602_std.a(bl602_romapi.o)
 .debug_abbrev  0x0000000000003724      0x2eb /home/parag/bl_iot_sdk/customer_app/SWEMS/build_out/bltime/libbltime.a(bl_sys_time.o)
 .debug_abbrev  0x0000000000003a0f      0x222 /home/parag/bl_iot_sdk/customer_app/SWEMS/build_out/freertos_riscv_ram/libfreertos_riscv_ram.a(misaligned_ldst.o)
 .debug_abbrev  0x0000000000003c31       0x14 /home/parag/bl_iot_sdk/customer_app/SWEMS/build_out/freertos_riscv_ram/libfreertos_riscv_ram.a(fp_asm.o)
 .debug_abbrev  0x0000000000003c45      0x1e7 /home/parag/bl_iot_sdk/customer_app/SWEMS/build_out/freertos_riscv_ram/libfreertos_riscv_ram.a(panic_c.o)
 .debug_abbrev  0x0000000000003e2c      0x431 /home/parag/bl_iot_sdk/customer_app/SWEMS/build_out/hal_drv/libhal_drv.a(bl_uart.o)
 .debug_abbrev  0x000000000000425d      0x31e /home/parag/bl_iot_sdk/customer_app/SWEMS/build_out/hal_drv/libhal_drv.a(bl_sys.o)
 .debug_abbrev  0x000000000000457b      0x282 /home/parag/bl_iot_sdk/customer_app/SWEMS/build_out/hal_drv/libhal_drv.a(bl_rtc.o)
 .debug_abbrev  0x00000000000047fd      0x2f4 /home/parag/bl_iot_sdk/customer_app/SWEMS/build_out/bl602_std/libbl602_std.a(bl602_uart.o)
 .debug_abbrev  0x0000000000004af1      0x242 /home/parag/bl_iot_sdk/toolchain/riscv/Linux/bin/../lib/gcc/riscv64-unknown-elf/8.3.0/rv32imf/ilp32f/libgcc.a(_clzsi2.o)
 .debug_abbrev  0x0000000000004d33      0x2cc /home/parag/bl_iot_sdk/toolchain/riscv/Linux/bin/../lib/gcc/riscv64-unknown-elf/8.3.0/rv32imf/ilp32f/libgcc.a(_udivdi3.o)
 .debug_abbrev  0x0000000000004fff      0x2e8 /home/parag/bl_iot_sdk/toolchain/riscv/Linux/bin/../lib/gcc/riscv64-unknown-elf/8.3.0/rv32imf/ilp32f/libgcc.a(_umoddi3.o)
 .debug_abbrev  0x00000000000052e7      0x19a /home/parag/bl_iot_sdk/toolchain/riscv/Linux/bin/../lib/gcc/riscv64-unknown-elf/8.3.0/rv32imf/ilp32f/libgcc.a(adddf3.o)
 .debug_abbrev  0x0000000000005481      0x17f /home/parag/bl_iot_sdk/toolchain/riscv/Linux/bin/../lib/gcc/riscv64-unknown-elf/8.3.0/rv32imf/ilp32f/libgcc.a(divdf3.o)
 .debug_abbrev  0x0000000000005600      0x1a4 /home/parag/bl_iot_sdk/toolchain/riscv/Linux/bin/../lib/gcc/riscv64-unknown-elf/8.3.0/rv32imf/ilp32f/libgcc.a(eqdf2.o)
 .debug_abbrev  0x00000000000057a4      0x199 /home/parag/bl_iot_sdk/toolchain/riscv/Linux/bin/../lib/gcc/riscv64-unknown-elf/8.3.0/rv32imf/ilp32f/libgcc.a(gedf2.o)
 .debug_abbrev  0x000000000000593d      0x199 /home/parag/bl_iot_sdk/toolchain/riscv/Linux/bin/../lib/gcc/riscv64-unknown-elf/8.3.0/rv32imf/ilp32f/libgcc.a(ledf2.o)
 .debug_abbrev  0x0000000000005ad6      0x186 /home/parag/bl_iot_sdk/toolchain/riscv/Linux/bin/../lib/gcc/riscv64-unknown-elf/8.3.0/rv32imf/ilp32f/libgcc.a(muldf3.o)
 .debug_abbrev  0x0000000000005c5c      0x189 /home/parag/bl_iot_sdk/toolchain/riscv/Linux/bin/../lib/gcc/riscv64-unknown-elf/8.3.0/rv32imf/ilp32f/libgcc.a(subdf3.o)
 .debug_abbrev  0x0000000000005de5      0x181 /home/parag/bl_iot_sdk/toolchain/riscv/Linux/bin/../lib/gcc/riscv64-unknown-elf/8.3.0/rv32imf/ilp32f/libgcc.a(fixdfsi.o)
 .debug_abbrev  0x0000000000005f66      0x1e8 /home/parag/bl_iot_sdk/toolchain/riscv/Linux/bin/../lib/gcc/riscv64-unknown-elf/8.3.0/rv32imf/ilp32f/libgcc.a(_clz.o)

.debug_aranges  0x0000000000000000     0x15b8
 .debug_aranges
                0x0000000000000000       0x20 /home/parag/bl_iot_sdk/customer_app/SWEMS/build_out/bl602/libbl602.a(start.o)
 .debug_aranges
                0x0000000000000020       0x80 /home/parag/bl_iot_sdk/customer_app/SWEMS/build_out/hal_drv/libhal_drv.a(hal_boot2.o)
 .debug_aranges
                0x00000000000000a0       0x20 /home/parag/bl_iot_sdk/customer_app/SWEMS/build_out/SWEMS/libSWEMS.a(main.o)
 .debug_aranges
                0x00000000000000c0       0x20 /home/parag/bl_iot_sdk/customer_app/SWEMS/build_out/SWEMS/libSWEMS.a(buzzer.o)
 .debug_aranges
                0x00000000000000e0      0x208 /home/parag/bl_iot_sdk/customer_app/SWEMS/build_out/freertos_riscv_ram/libfreertos_riscv_ram.a(tasks.o)
 .debug_aranges
                0x00000000000002e8       0xb8 /home/parag/bl_iot_sdk/customer_app/SWEMS/build_out/freertos_riscv_ram/libfreertos_riscv_ram.a(timers.o)
 .debug_aranges
                0x00000000000003a0       0x30 /home/parag/bl_iot_sdk/customer_app/SWEMS/build_out/freertos_riscv_ram/libfreertos_riscv_ram.a(port.o)
 .debug_aranges
                0x00000000000003d0       0x20 /home/parag/bl_iot_sdk/customer_app/SWEMS/build_out/freertos_riscv_ram/libfreertos_riscv_ram.a(portASM.o)
 .debug_aranges
                0x00000000000003f0       0x50 /home/parag/bl_iot_sdk/customer_app/SWEMS/build_out/freertos_riscv_ram/libfreertos_riscv_ram.a(heap_5.o)
 .debug_aranges
                0x0000000000000440       0x40 /home/parag/bl_iot_sdk/customer_app/SWEMS/build_out/freertos_riscv_ram/libfreertos_riscv_ram.a(list.o)
 .debug_aranges
                0x0000000000000480      0x120 /home/parag/bl_iot_sdk/customer_app/SWEMS/build_out/freertos_riscv_ram/libfreertos_riscv_ram.a(queue.o)
 .debug_aranges
                0x00000000000005a0       0x80 /home/parag/bl_iot_sdk/customer_app/SWEMS/build_out/hal_drv/libhal_drv.a(bl_irq.o)
 .debug_aranges
                0x0000000000000620       0x68 /home/parag/bl_iot_sdk/customer_app/SWEMS/build_out/hal_drv/libhal_drv.a(bl_gpio.o)
 .debug_aranges
                0x0000000000000688       0x48 /home/parag/bl_iot_sdk/customer_app/SWEMS/build_out/SWEMS/libSWEMS.a(freertos.o)
 .debug_aranges
                0x00000000000006d0       0x88 /home/parag/bl_iot_sdk/customer_app/SWEMS/build_out/bl602/libbl602.a(debug.o)
 .debug_aranges
                0x0000000000000758      0x288 /home/parag/bl_iot_sdk/customer_app/SWEMS/build_out/bl602_std/libbl602_std.a(bl602_glb.o)
 .debug_aranges
                0x00000000000009e0      0x1f8 /home/parag/bl_iot_sdk/customer_app/SWEMS/build_out/bl602_std/libbl602_std.a(bl602_hbn.o)
 .debug_aranges
                0x0000000000000bd8      0x568 /home/parag/bl_iot_sdk/customer_app/SWEMS/build_out/bl602_std/libbl602_std.a(bl602_romapi.o)
 .debug_aranges
                0x0000000000001140       0x40 /home/parag/bl_iot_sdk/customer_app/SWEMS/build_out/bltime/libbltime.a(bl_sys_time.o)
 .debug_aranges
                0x0000000000001180       0x30 /home/parag/bl_iot_sdk/customer_app/SWEMS/build_out/freertos_riscv_ram/libfreertos_riscv_ram.a(misaligned_ldst.o)
 .debug_aranges
                0x00000000000011b0       0x20 /home/parag/bl_iot_sdk/customer_app/SWEMS/build_out/freertos_riscv_ram/libfreertos_riscv_ram.a(fp_asm.o)
 .debug_aranges
                0x00000000000011d0       0x20 /home/parag/bl_iot_sdk/customer_app/SWEMS/build_out/freertos_riscv_ram/libfreertos_riscv_ram.a(panic_c.o)
 .debug_aranges
                0x00000000000011f0       0xb8 /home/parag/bl_iot_sdk/customer_app/SWEMS/build_out/hal_drv/libhal_drv.a(bl_uart.o)
 .debug_aranges
                0x00000000000012a8       0x60 /home/parag/bl_iot_sdk/customer_app/SWEMS/build_out/hal_drv/libhal_drv.a(bl_sys.o)
 .debug_aranges
                0x0000000000001308       0x30 /home/parag/bl_iot_sdk/customer_app/SWEMS/build_out/hal_drv/libhal_drv.a(bl_rtc.o)
 .debug_aranges
                0x0000000000001338      0x108 /home/parag/bl_iot_sdk/customer_app/SWEMS/build_out/bl602_std/libbl602_std.a(bl602_uart.o)
 .debug_aranges
                0x0000000000001440       0x20 /home/parag/bl_iot_sdk/toolchain/riscv/Linux/bin/../lib/gcc/riscv64-unknown-elf/8.3.0/rv32imf/ilp32f/libgcc.a(_clzsi2.o)
 .debug_aranges
                0x0000000000001460       0x20 /home/parag/bl_iot_sdk/toolchain/riscv/Linux/bin/../lib/gcc/riscv64-unknown-elf/8.3.0/rv32imf/ilp32f/libgcc.a(_udivdi3.o)
 .debug_aranges
                0x0000000000001480       0x20 /home/parag/bl_iot_sdk/toolchain/riscv/Linux/bin/../lib/gcc/riscv64-unknown-elf/8.3.0/rv32imf/ilp32f/libgcc.a(_umoddi3.o)
 .debug_aranges
                0x00000000000014a0       0x20 /home/parag/bl_iot_sdk/toolchain/riscv/Linux/bin/../lib/gcc/riscv64-unknown-elf/8.3.0/rv32imf/ilp32f/libgcc.a(adddf3.o)
 .debug_aranges
                0x00000000000014c0       0x20 /home/parag/bl_iot_sdk/toolchain/riscv/Linux/bin/../lib/gcc/riscv64-unknown-elf/8.3.0/rv32imf/ilp32f/libgcc.a(divdf3.o)
 .debug_aranges
                0x00000000000014e0       0x20 /home/parag/bl_iot_sdk/toolchain/riscv/Linux/bin/../lib/gcc/riscv64-unknown-elf/8.3.0/rv32imf/ilp32f/libgcc.a(eqdf2.o)
 .debug_aranges
                0x0000000000001500       0x20 /home/parag/bl_iot_sdk/toolchain/riscv/Linux/bin/../lib/gcc/riscv64-unknown-elf/8.3.0/rv32imf/ilp32f/libgcc.a(gedf2.o)
 .debug_aranges
                0x0000000000001520       0x20 /home/parag/bl_iot_sdk/toolchain/riscv/Linux/bin/../lib/gcc/riscv64-unknown-elf/8.3.0/rv32imf/ilp32f/libgcc.a(ledf2.o)
 .debug_aranges
                0x0000000000001540       0x20 /home/parag/bl_iot_sdk/toolchain/riscv/Linux/bin/../lib/gcc/riscv64-unknown-elf/8.3.0/rv32imf/ilp32f/libgcc.a(muldf3.o)
 .debug_aranges
                0x0000000000001560       0x20 /home/parag/bl_iot_sdk/toolchain/riscv/Linux/bin/../lib/gcc/riscv64-unknown-elf/8.3.0/rv32imf/ilp32f/libgcc.a(subdf3.o)
 .debug_aranges
                0x0000000000001580       0x20 /home/parag/bl_iot_sdk/toolchain/riscv/Linux/bin/../lib/gcc/riscv64-unknown-elf/8.3.0/rv32imf/ilp32f/libgcc.a(fixdfsi.o)
 .debug_aranges
                0x00000000000015a0       0x18 /home/parag/bl_iot_sdk/toolchain/riscv/Linux/bin/../lib/gcc/riscv64-unknown-elf/8.3.0/rv32imf/ilp32f/libgcc.a(_clz.o)

.debug_str      0x0000000000000000     0x993c
 .debug_str     0x0000000000000000       0x8d /home/parag/bl_iot_sdk/customer_app/SWEMS/build_out/bl602/libbl602.a(start.o)
 .debug_str     0x000000000000008d      0x93c /home/parag/bl_iot_sdk/customer_app/SWEMS/build_out/hal_drv/libhal_drv.a(hal_boot2.o)
                                        0xa4e (size before relaxing)
 .debug_str     0x00000000000009c9      0x188 /home/parag/bl_iot_sdk/customer_app/SWEMS/build_out/SWEMS/libSWEMS.a(main.o)
                                        0x6e8 (size before relaxing)
 .debug_str     0x0000000000000b51       0x86 /home/parag/bl_iot_sdk/customer_app/SWEMS/build_out/SWEMS/libSWEMS.a(buzzer.o)
                                        0x607 (size before relaxing)
 .debug_str     0x0000000000000bd7     0x10c2 /home/parag/bl_iot_sdk/customer_app/SWEMS/build_out/freertos_riscv_ram/libfreertos_riscv_ram.a(tasks.o)
                                       0x1749 (size before relaxing)
 .debug_str     0x0000000000001c99      0x724 /home/parag/bl_iot_sdk/customer_app/SWEMS/build_out/freertos_riscv_ram/libfreertos_riscv_ram.a(timers.o)
                                       0x102d (size before relaxing)
 .debug_str     0x00000000000023bd      0x14b /home/parag/bl_iot_sdk/customer_app/SWEMS/build_out/freertos_riscv_ram/libfreertos_riscv_ram.a(port.o)
                                        0x360 (size before relaxing)
 .debug_str     0x0000000000002508       0x59 /home/parag/bl_iot_sdk/customer_app/SWEMS/build_out/freertos_riscv_ram/libfreertos_riscv_ram.a(portASM.o)
                                         0xac (size before relaxing)
 .debug_str     0x0000000000002561      0x2a4 /home/parag/bl_iot_sdk/customer_app/SWEMS/build_out/freertos_riscv_ram/libfreertos_riscv_ram.a(heap_5.o)
                                        0x8aa (size before relaxing)
 .debug_str     0x0000000000002805       0x78 /home/parag/bl_iot_sdk/customer_app/SWEMS/build_out/freertos_riscv_ram/libfreertos_riscv_ram.a(list.o)
                                        0x722 (size before relaxing)
 .debug_str     0x000000000000287d      0x594 /home/parag/bl_iot_sdk/customer_app/SWEMS/build_out/freertos_riscv_ram/libfreertos_riscv_ram.a(queue.o)
                                       0x1035 (size before relaxing)
 .debug_str     0x0000000000002e11      0x26b /home/parag/bl_iot_sdk/customer_app/SWEMS/build_out/hal_drv/libhal_drv.a(bl_irq.o)
                                        0x847 (size before relaxing)
 .debug_str     0x000000000000307c      0x6d4 /home/parag/bl_iot_sdk/customer_app/SWEMS/build_out/hal_drv/libhal_drv.a(bl_gpio.o)
                                        0xd13 (size before relaxing)
 .debug_str     0x0000000000003750      0x125 /home/parag/bl_iot_sdk/customer_app/SWEMS/build_out/SWEMS/libSWEMS.a(freertos.o)
                                        0x877 (size before relaxing)
 .debug_str     0x0000000000003875      0x2cf /home/parag/bl_iot_sdk/customer_app/SWEMS/build_out/bl602/libbl602.a(debug.o)
                                        0x8d5 (size before relaxing)
 .debug_str     0x0000000000003b44     0x1477 /home/parag/bl_iot_sdk/customer_app/SWEMS/build_out/bl602_std/libbl602_std.a(bl602_glb.o)
                                       0x1ea2 (size before relaxing)
 .debug_str     0x0000000000004fbb      0xeee /home/parag/bl_iot_sdk/customer_app/SWEMS/build_out/bl602_std/libbl602_std.a(bl602_hbn.o)
                                       0x192a (size before relaxing)
 .debug_str     0x0000000000005ea9     0x21b3 /home/parag/bl_iot_sdk/customer_app/SWEMS/build_out/bl602_std/libbl602_std.a(bl602_romapi.o)
                                       0x4458 (size before relaxing)
 .debug_str     0x000000000000805c      0x14e /home/parag/bl_iot_sdk/customer_app/SWEMS/build_out/bltime/libbltime.a(bl_sys_time.o)
                                        0x74a (size before relaxing)
 .debug_str     0x00000000000081aa       0xec /home/parag/bl_iot_sdk/customer_app/SWEMS/build_out/freertos_riscv_ram/libfreertos_riscv_ram.a(misaligned_ldst.o)
                                        0x2f6 (size before relaxing)
 .debug_str     0x0000000000008296       0x4f /home/parag/bl_iot_sdk/customer_app/SWEMS/build_out/freertos_riscv_ram/libfreertos_riscv_ram.a(fp_asm.o)
                                         0xa2 (size before relaxing)
 .debug_str     0x00000000000082e5       0x72 /home/parag/bl_iot_sdk/customer_app/SWEMS/build_out/freertos_riscv_ram/libfreertos_riscv_ram.a(panic_c.o)
                                        0x5ed (size before relaxing)
 .debug_str     0x0000000000008357      0x61a /home/parag/bl_iot_sdk/customer_app/SWEMS/build_out/hal_drv/libhal_drv.a(bl_uart.o)
                                       0x1141 (size before relaxing)
 .debug_str     0x0000000000008971      0x136 /home/parag/bl_iot_sdk/customer_app/SWEMS/build_out/hal_drv/libhal_drv.a(bl_sys.o)
                                        0x780 (size before relaxing)
 .debug_str     0x0000000000008aa7       0x5c /home/parag/bl_iot_sdk/customer_app/SWEMS/build_out/hal_drv/libhal_drv.a(bl_rtc.o)
                                        0x695 (size before relaxing)
 .debug_str     0x0000000000008b03      0x3ae /home/parag/bl_iot_sdk/customer_app/SWEMS/build_out/bl602_std/libbl602_std.a(bl602_uart.o)
                                        0xf26 (size before relaxing)
 .debug_str     0x0000000000008eb1      0x34c /home/parag/bl_iot_sdk/toolchain/riscv/Linux/bin/../lib/gcc/riscv64-unknown-elf/8.3.0/rv32imf/ilp32f/libgcc.a(_clzsi2.o)
                                        0x805 (size before relaxing)
 .debug_str     0x00000000000091fd      0x132 /home/parag/bl_iot_sdk/toolchain/riscv/Linux/bin/../lib/gcc/riscv64-unknown-elf/8.3.0/rv32imf/ilp32f/libgcc.a(_udivdi3.o)
                                        0x8a1 (size before relaxing)
 .debug_str     0x000000000000932f        0xa /home/parag/bl_iot_sdk/toolchain/riscv/Linux/bin/../lib/gcc/riscv64-unknown-elf/8.3.0/rv32imf/ilp32f/libgcc.a(_umoddi3.o)
                                        0x8a1 (size before relaxing)
 .debug_str     0x0000000000009339      0x194 /home/parag/bl_iot_sdk/toolchain/riscv/Linux/bin/../lib/gcc/riscv64-unknown-elf/8.3.0/rv32imf/ilp32f/libgcc.a(adddf3.o)
                                        0x367 (size before relaxing)
 .debug_str     0x00000000000094cd      0x19c /home/parag/bl_iot_sdk/toolchain/riscv/Linux/bin/../lib/gcc/riscv64-unknown-elf/8.3.0/rv32imf/ilp32f/libgcc.a(divdf3.o)
                                        0x429 (size before relaxing)
 .debug_str     0x0000000000009669       0x57 /home/parag/bl_iot_sdk/toolchain/riscv/Linux/bin/../lib/gcc/riscv64-unknown-elf/8.3.0/rv32imf/ilp32f/libgcc.a(eqdf2.o)
                                        0x281 (size before relaxing)
 .debug_str     0x00000000000096c0       0x5c /home/parag/bl_iot_sdk/toolchain/riscv/Linux/bin/../lib/gcc/riscv64-unknown-elf/8.3.0/rv32imf/ilp32f/libgcc.a(gedf2.o)
                                        0x2a5 (size before relaxing)
 .debug_str     0x000000000000971c       0x38 /home/parag/bl_iot_sdk/toolchain/riscv/Linux/bin/../lib/gcc/riscv64-unknown-elf/8.3.0/rv32imf/ilp32f/libgcc.a(ledf2.o)
                                        0x2a5 (size before relaxing)
 .debug_str     0x0000000000009754      0x15f /home/parag/bl_iot_sdk/toolchain/riscv/Linux/bin/../lib/gcc/riscv64-unknown-elf/8.3.0/rv32imf/ilp32f/libgcc.a(muldf3.o)
                                        0x481 (size before relaxing)
 .debug_str     0x00000000000098b3       0x3a /home/parag/bl_iot_sdk/toolchain/riscv/Linux/bin/../lib/gcc/riscv64-unknown-elf/8.3.0/rv32imf/ilp32f/libgcc.a(subdf3.o)
                                        0x367 (size before relaxing)
 .debug_str     0x00000000000098ed       0x4f /home/parag/bl_iot_sdk/toolchain/riscv/Linux/bin/../lib/gcc/riscv64-unknown-elf/8.3.0/rv32imf/ilp32f/libgcc.a(fixdfsi.o)
                                        0x27e (size before relaxing)
 .debug_str     0x000000000000993c      0x7e8 /home/parag/bl_iot_sdk/toolchain/riscv/Linux/bin/../lib/gcc/riscv64-unknown-elf/8.3.0/rv32imf/ilp32f/libgcc.a(_clz.o)

.debug_loc      0x0000000000000000    0x18593
 .debug_loc     0x0000000000000000      0x775 /home/parag/bl_iot_sdk/customer_app/SWEMS/build_out/hal_drv/libhal_drv.a(hal_boot2.o)
 .debug_loc     0x0000000000000775       0x21 /home/parag/bl_iot_sdk/customer_app/SWEMS/build_out/SWEMS/libSWEMS.a(buzzer.o)
 .debug_loc     0x0000000000000796     0x2a0f /home/parag/bl_iot_sdk/customer_app/SWEMS/build_out/freertos_riscv_ram/libfreertos_riscv_ram.a(tasks.o)
 .debug_loc     0x00000000000031a5     0x1309 /home/parag/bl_iot_sdk/customer_app/SWEMS/build_out/freertos_riscv_ram/libfreertos_riscv_ram.a(timers.o)
 .debug_loc     0x00000000000044ae       0x35 /home/parag/bl_iot_sdk/customer_app/SWEMS/build_out/freertos_riscv_ram/libfreertos_riscv_ram.a(port.o)
 .debug_loc     0x00000000000044e3      0x4b9 /home/parag/bl_iot_sdk/customer_app/SWEMS/build_out/freertos_riscv_ram/libfreertos_riscv_ram.a(heap_5.o)
 .debug_loc     0x000000000000499c       0x6b /home/parag/bl_iot_sdk/customer_app/SWEMS/build_out/freertos_riscv_ram/libfreertos_riscv_ram.a(list.o)
 .debug_loc     0x0000000000004a07     0x22fe /home/parag/bl_iot_sdk/customer_app/SWEMS/build_out/freertos_riscv_ram/libfreertos_riscv_ram.a(queue.o)
 .debug_loc     0x0000000000006d05      0x57a /home/parag/bl_iot_sdk/customer_app/SWEMS/build_out/hal_drv/libhal_drv.a(bl_irq.o)
 .debug_loc     0x000000000000727f      0x452 /home/parag/bl_iot_sdk/customer_app/SWEMS/build_out/hal_drv/libhal_drv.a(bl_gpio.o)
 .debug_loc     0x00000000000076d1       0x40 /home/parag/bl_iot_sdk/customer_app/SWEMS/build_out/SWEMS/libSWEMS.a(freertos.o)
 .debug_loc     0x0000000000007711     0x233d /home/parag/bl_iot_sdk/customer_app/SWEMS/build_out/bl602/libbl602.a(debug.o)
 .debug_loc     0x0000000000009a4e     0x1b1b /home/parag/bl_iot_sdk/customer_app/SWEMS/build_out/bl602_std/libbl602_std.a(bl602_glb.o)
 .debug_loc     0x000000000000b569     0x1008 /home/parag/bl_iot_sdk/customer_app/SWEMS/build_out/bl602_std/libbl602_std.a(bl602_hbn.o)
 .debug_loc     0x000000000000c571     0x1c9e /home/parag/bl_iot_sdk/customer_app/SWEMS/build_out/bl602_std/libbl602_std.a(bl602_romapi.o)
 .debug_loc     0x000000000000e20f      0x19e /home/parag/bl_iot_sdk/customer_app/SWEMS/build_out/bltime/libbltime.a(bl_sys_time.o)
 .debug_loc     0x000000000000e3ad      0x566 /home/parag/bl_iot_sdk/customer_app/SWEMS/build_out/freertos_riscv_ram/libfreertos_riscv_ram.a(misaligned_ldst.o)
 .debug_loc     0x000000000000e913       0x21 /home/parag/bl_iot_sdk/customer_app/SWEMS/build_out/freertos_riscv_ram/libfreertos_riscv_ram.a(panic_c.o)
 .debug_loc     0x000000000000e934      0x5e6 /home/parag/bl_iot_sdk/customer_app/SWEMS/build_out/hal_drv/libhal_drv.a(bl_uart.o)
 .debug_loc     0x000000000000ef1a       0x4e /home/parag/bl_iot_sdk/customer_app/SWEMS/build_out/hal_drv/libhal_drv.a(bl_sys.o)
 .debug_loc     0x000000000000ef68       0x18 /home/parag/bl_iot_sdk/customer_app/SWEMS/build_out/hal_drv/libhal_drv.a(bl_rtc.o)
 .debug_loc     0x000000000000ef80     0x10b9 /home/parag/bl_iot_sdk/customer_app/SWEMS/build_out/bl602_std/libbl602_std.a(bl602_uart.o)
 .debug_loc     0x0000000000010039       0x6b /home/parag/bl_iot_sdk/toolchain/riscv/Linux/bin/../lib/gcc/riscv64-unknown-elf/8.3.0/rv32imf/ilp32f/libgcc.a(_clzsi2.o)
 .debug_loc     0x00000000000100a4      0xbd0 /home/parag/bl_iot_sdk/toolchain/riscv/Linux/bin/../lib/gcc/riscv64-unknown-elf/8.3.0/rv32imf/ilp32f/libgcc.a(_udivdi3.o)
 .debug_loc     0x0000000000010c74      0x969 /home/parag/bl_iot_sdk/toolchain/riscv/Linux/bin/../lib/gcc/riscv64-unknown-elf/8.3.0/rv32imf/ilp32f/libgcc.a(_umoddi3.o)
 .debug_loc     0x00000000000115dd     0x1dad /home/parag/bl_iot_sdk/toolchain/riscv/Linux/bin/../lib/gcc/riscv64-unknown-elf/8.3.0/rv32imf/ilp32f/libgcc.a(adddf3.o)
 .debug_loc     0x000000000001338a     0x16c9 /home/parag/bl_iot_sdk/toolchain/riscv/Linux/bin/../lib/gcc/riscv64-unknown-elf/8.3.0/rv32imf/ilp32f/libgcc.a(divdf3.o)
 .debug_loc     0x0000000000014a53      0x192 /home/parag/bl_iot_sdk/toolchain/riscv/Linux/bin/../lib/gcc/riscv64-unknown-elf/8.3.0/rv32imf/ilp32f/libgcc.a(eqdf2.o)
 .debug_loc     0x0000000000014be5      0x156 /home/parag/bl_iot_sdk/toolchain/riscv/Linux/bin/../lib/gcc/riscv64-unknown-elf/8.3.0/rv32imf/ilp32f/libgcc.a(gedf2.o)
 .debug_loc     0x0000000000014d3b      0x156 /home/parag/bl_iot_sdk/toolchain/riscv/Linux/bin/../lib/gcc/riscv64-unknown-elf/8.3.0/rv32imf/ilp32f/libgcc.a(ledf2.o)
 .debug_loc     0x0000000000014e91     0x112d /home/parag/bl_iot_sdk/toolchain/riscv/Linux/bin/../lib/gcc/riscv64-unknown-elf/8.3.0/rv32imf/ilp32f/libgcc.a(muldf3.o)
 .debug_loc     0x0000000000015fbe     0x2366 /home/parag/bl_iot_sdk/toolchain/riscv/Linux/bin/../lib/gcc/riscv64-unknown-elf/8.3.0/rv32imf/ilp32f/libgcc.a(subdf3.o)
 .debug_loc     0x0000000000018324      0x26f /home/parag/bl_iot_sdk/toolchain/riscv/Linux/bin/../lib/gcc/riscv64-unknown-elf/8.3.0/rv32imf/ilp32f/libgcc.a(fixdfsi.o)

.debug_ranges   0x0000000000000000     0x2c48
 .debug_ranges  0x0000000000000000       0xa0 /home/parag/bl_iot_sdk/customer_app/SWEMS/build_out/hal_drv/libhal_drv.a(hal_boot2.o)
 .debug_ranges  0x00000000000000a0       0x10 /home/parag/bl_iot_sdk/customer_app/SWEMS/build_out/SWEMS/libSWEMS.a(main.o)
 .debug_ranges  0x00000000000000b0       0x10 /home/parag/bl_iot_sdk/customer_app/SWEMS/build_out/SWEMS/libSWEMS.a(buzzer.o)
 .debug_ranges  0x00000000000000c0      0x780 /home/parag/bl_iot_sdk/customer_app/SWEMS/build_out/freertos_riscv_ram/libfreertos_riscv_ram.a(tasks.o)
 .debug_ranges  0x0000000000000840      0x218 /home/parag/bl_iot_sdk/customer_app/SWEMS/build_out/freertos_riscv_ram/libfreertos_riscv_ram.a(timers.o)
 .debug_ranges  0x0000000000000a58       0x40 /home/parag/bl_iot_sdk/customer_app/SWEMS/build_out/freertos_riscv_ram/libfreertos_riscv_ram.a(port.o)
 .debug_ranges  0x0000000000000a98       0x40 /home/parag/bl_iot_sdk/customer_app/SWEMS/build_out/freertos_riscv_ram/libfreertos_riscv_ram.a(heap_5.o)
 .debug_ranges  0x0000000000000ad8       0x30 /home/parag/bl_iot_sdk/customer_app/SWEMS/build_out/freertos_riscv_ram/libfreertos_riscv_ram.a(list.o)
 .debug_ranges  0x0000000000000b08      0x340 /home/parag/bl_iot_sdk/customer_app/SWEMS/build_out/freertos_riscv_ram/libfreertos_riscv_ram.a(queue.o)
 .debug_ranges  0x0000000000000e48       0xa8 /home/parag/bl_iot_sdk/customer_app/SWEMS/build_out/hal_drv/libhal_drv.a(bl_irq.o)
 .debug_ranges  0x0000000000000ef0       0x88 /home/parag/bl_iot_sdk/customer_app/SWEMS/build_out/hal_drv/libhal_drv.a(bl_gpio.o)
 .debug_ranges  0x0000000000000f78       0x38 /home/parag/bl_iot_sdk/customer_app/SWEMS/build_out/SWEMS/libSWEMS.a(freertos.o)
 .debug_ranges  0x0000000000000fb0      0x138 /home/parag/bl_iot_sdk/customer_app/SWEMS/build_out/bl602/libbl602.a(debug.o)
 .debug_ranges  0x00000000000010e8      0x2a8 /home/parag/bl_iot_sdk/customer_app/SWEMS/build_out/bl602_std/libbl602_std.a(bl602_glb.o)
 .debug_ranges  0x0000000000001390      0x1e8 /home/parag/bl_iot_sdk/customer_app/SWEMS/build_out/bl602_std/libbl602_std.a(bl602_hbn.o)
 .debug_ranges  0x0000000000001578      0x558 /home/parag/bl_iot_sdk/customer_app/SWEMS/build_out/bl602_std/libbl602_std.a(bl602_romapi.o)
 .debug_ranges  0x0000000000001ad0       0x30 /home/parag/bl_iot_sdk/customer_app/SWEMS/build_out/bltime/libbltime.a(bl_sys_time.o)
 .debug_ranges  0x0000000000001b00      0x150 /home/parag/bl_iot_sdk/customer_app/SWEMS/build_out/freertos_riscv_ram/libfreertos_riscv_ram.a(misaligned_ldst.o)
 .debug_ranges  0x0000000000001c50       0x10 /home/parag/bl_iot_sdk/customer_app/SWEMS/build_out/freertos_riscv_ram/libfreertos_riscv_ram.a(panic_c.o)
 .debug_ranges  0x0000000000001c60       0xc0 /home/parag/bl_iot_sdk/customer_app/SWEMS/build_out/hal_drv/libhal_drv.a(bl_uart.o)
 .debug_ranges  0x0000000000001d20       0x80 /home/parag/bl_iot_sdk/customer_app/SWEMS/build_out/hal_drv/libhal_drv.a(bl_sys.o)
 .debug_ranges  0x0000000000001da0       0x20 /home/parag/bl_iot_sdk/customer_app/SWEMS/build_out/hal_drv/libhal_drv.a(bl_rtc.o)
 .debug_ranges  0x0000000000001dc0       0xf8 /home/parag/bl_iot_sdk/customer_app/SWEMS/build_out/bl602_std/libbl602_std.a(bl602_uart.o)
 .debug_ranges  0x0000000000001eb8       0x20 /home/parag/bl_iot_sdk/toolchain/riscv/Linux/bin/../lib/gcc/riscv64-unknown-elf/8.3.0/rv32imf/ilp32f/libgcc.a(_clzsi2.o)
 .debug_ranges  0x0000000000001ed8      0x100 /home/parag/bl_iot_sdk/toolchain/riscv/Linux/bin/../lib/gcc/riscv64-unknown-elf/8.3.0/rv32imf/ilp32f/libgcc.a(_udivdi3.o)
 .debug_ranges  0x0000000000001fd8       0xd0 /home/parag/bl_iot_sdk/toolchain/riscv/Linux/bin/../lib/gcc/riscv64-unknown-elf/8.3.0/rv32imf/ilp32f/libgcc.a(_umoddi3.o)
 .debug_ranges  0x00000000000020a8      0x2f0 /home/parag/bl_iot_sdk/toolchain/riscv/Linux/bin/../lib/gcc/riscv64-unknown-elf/8.3.0/rv32imf/ilp32f/libgcc.a(adddf3.o)
 .debug_ranges  0x0000000000002398      0x1d0 /home/parag/bl_iot_sdk/toolchain/riscv/Linux/bin/../lib/gcc/riscv64-unknown-elf/8.3.0/rv32imf/ilp32f/libgcc.a(divdf3.o)
 .debug_ranges  0x0000000000002568       0x60 /home/parag/bl_iot_sdk/toolchain/riscv/Linux/bin/../lib/gcc/riscv64-unknown-elf/8.3.0/rv32imf/ilp32f/libgcc.a(eqdf2.o)
 .debug_ranges  0x00000000000025c8       0x68 /home/parag/bl_iot_sdk/toolchain/riscv/Linux/bin/../lib/gcc/riscv64-unknown-elf/8.3.0/rv32imf/ilp32f/libgcc.a(gedf2.o)
 .debug_ranges  0x0000000000002630       0x68 /home/parag/bl_iot_sdk/toolchain/riscv/Linux/bin/../lib/gcc/riscv64-unknown-elf/8.3.0/rv32imf/ilp32f/libgcc.a(ledf2.o)
 .debug_ranges  0x0000000000002698      0x230 /home/parag/bl_iot_sdk/toolchain/riscv/Linux/bin/../lib/gcc/riscv64-unknown-elf/8.3.0/rv32imf/ilp32f/libgcc.a(muldf3.o)
 .debug_ranges  0x00000000000028c8      0x330 /home/parag/bl_iot_sdk/toolchain/riscv/Linux/bin/../lib/gcc/riscv64-unknown-elf/8.3.0/rv32imf/ilp32f/libgcc.a(subdf3.o)
 .debug_ranges  0x0000000000002bf8       0x50 /home/parag/bl_iot_sdk/toolchain/riscv/Linux/bin/../lib/gcc/riscv64-unknown-elf/8.3.0/rv32imf/ilp32f/libgcc.a(fixdfsi.o)

.debug_frame    0x0000000000000000     0x39ec
 .debug_frame   0x0000000000000000      0x1e0 /home/parag/bl_iot_sdk/customer_app/SWEMS/build_out/hal_drv/libhal_drv.a(hal_boot2.o)
 .debug_frame   0x00000000000001e0       0x2c /home/parag/bl_iot_sdk/customer_app/SWEMS/build_out/SWEMS/libSWEMS.a(main.o)
 .debug_frame   0x000000000000020c       0x28 /home/parag/bl_iot_sdk/customer_app/SWEMS/build_out/SWEMS/libSWEMS.a(buzzer.o)
 .debug_frame   0x0000000000000234      0xa80 /home/parag/bl_iot_sdk/customer_app/SWEMS/build_out/freertos_riscv_ram/libfreertos_riscv_ram.a(tasks.o)
 .debug_frame   0x0000000000000cb4      0x334 /home/parag/bl_iot_sdk/customer_app/SWEMS/build_out/freertos_riscv_ram/libfreertos_riscv_ram.a(timers.o)
 .debug_frame   0x0000000000000fe8       0x50 /home/parag/bl_iot_sdk/customer_app/SWEMS/build_out/freertos_riscv_ram/libfreertos_riscv_ram.a(port.o)
 .debug_frame   0x0000000000001038      0x10c /home/parag/bl_iot_sdk/customer_app/SWEMS/build_out/freertos_riscv_ram/libfreertos_riscv_ram.a(heap_5.o)
 .debug_frame   0x0000000000001144       0x60 /home/parag/bl_iot_sdk/customer_app/SWEMS/build_out/freertos_riscv_ram/libfreertos_riscv_ram.a(list.o)
 .debug_frame   0x00000000000011a4      0x57c /home/parag/bl_iot_sdk/customer_app/SWEMS/build_out/freertos_riscv_ram/libfreertos_riscv_ram.a(queue.o)
 .debug_frame   0x0000000000001720      0x12c /home/parag/bl_iot_sdk/customer_app/SWEMS/build_out/hal_drv/libhal_drv.a(bl_irq.o)
 .debug_frame   0x000000000000184c      0x114 /home/parag/bl_iot_sdk/customer_app/SWEMS/build_out/hal_drv/libhal_drv.a(bl_gpio.o)
 .debug_frame   0x0000000000001960       0x8c /home/parag/bl_iot_sdk/customer_app/SWEMS/build_out/SWEMS/libSWEMS.a(freertos.o)
 .debug_frame   0x00000000000019ec      0x254 /home/parag/bl_iot_sdk/customer_app/SWEMS/build_out/bl602/libbl602.a(debug.o)
 .debug_frame   0x0000000000001c40      0x574 /home/parag/bl_iot_sdk/customer_app/SWEMS/build_out/bl602_std/libbl602_std.a(bl602_glb.o)
 .debug_frame   0x00000000000021b4      0x48c /home/parag/bl_iot_sdk/customer_app/SWEMS/build_out/bl602_std/libbl602_std.a(bl602_hbn.o)
 .debug_frame   0x0000000000002640      0xab0 /home/parag/bl_iot_sdk/customer_app/SWEMS/build_out/bl602_std/libbl602_std.a(bl602_romapi.o)
 .debug_frame   0x00000000000030f0       0xb4 /home/parag/bl_iot_sdk/customer_app/SWEMS/build_out/bltime/libbltime.a(bl_sys_time.o)
 .debug_frame   0x00000000000031a4       0x5c /home/parag/bl_iot_sdk/customer_app/SWEMS/build_out/freertos_riscv_ram/libfreertos_riscv_ram.a(misaligned_ldst.o)
 .debug_frame   0x0000000000003200       0x20 /home/parag/bl_iot_sdk/customer_app/SWEMS/build_out/freertos_riscv_ram/libfreertos_riscv_ram.a(panic_c.o)
 .debug_frame   0x0000000000003220      0x248 /home/parag/bl_iot_sdk/customer_app/SWEMS/build_out/hal_drv/libhal_drv.a(bl_uart.o)
 .debug_frame   0x0000000000003468       0xd4 /home/parag/bl_iot_sdk/customer_app/SWEMS/build_out/hal_drv/libhal_drv.a(bl_sys.o)
 .debug_frame   0x000000000000353c       0x64 /home/parag/bl_iot_sdk/customer_app/SWEMS/build_out/hal_drv/libhal_drv.a(bl_rtc.o)
 .debug_frame   0x00000000000035a0      0x274 /home/parag/bl_iot_sdk/customer_app/SWEMS/build_out/bl602_std/libbl602_std.a(bl602_uart.o)
 .debug_frame   0x0000000000003814       0x20 /home/parag/bl_iot_sdk/toolchain/riscv/Linux/bin/../lib/gcc/riscv64-unknown-elf/8.3.0/rv32imf/ilp32f/libgcc.a(_clzsi2.o)
 .debug_frame   0x0000000000003834       0x44 /home/parag/bl_iot_sdk/toolchain/riscv/Linux/bin/../lib/gcc/riscv64-unknown-elf/8.3.0/rv32imf/ilp32f/libgcc.a(adddf3.o)
 .debug_frame   0x0000000000003878       0x58 /home/parag/bl_iot_sdk/toolchain/riscv/Linux/bin/../lib/gcc/riscv64-unknown-elf/8.3.0/rv32imf/ilp32f/libgcc.a(divdf3.o)
 .debug_frame   0x00000000000038d0       0x20 /home/parag/bl_iot_sdk/toolchain/riscv/Linux/bin/../lib/gcc/riscv64-unknown-elf/8.3.0/rv32imf/ilp32f/libgcc.a(eqdf2.o)
 .debug_frame   0x00000000000038f0       0x20 /home/parag/bl_iot_sdk/toolchain/riscv/Linux/bin/../lib/gcc/riscv64-unknown-elf/8.3.0/rv32imf/ilp32f/libgcc.a(gedf2.o)
 .debug_frame   0x0000000000003910       0x20 /home/parag/bl_iot_sdk/toolchain/riscv/Linux/bin/../lib/gcc/riscv64-unknown-elf/8.3.0/rv32imf/ilp32f/libgcc.a(ledf2.o)
 .debug_frame   0x0000000000003930       0x58 /home/parag/bl_iot_sdk/toolchain/riscv/Linux/bin/../lib/gcc/riscv64-unknown-elf/8.3.0/rv32imf/ilp32f/libgcc.a(muldf3.o)
 .debug_frame   0x0000000000003988       0x44 /home/parag/bl_iot_sdk/toolchain/riscv/Linux/bin/../lib/gcc/riscv64-unknown-elf/8.3.0/rv32imf/ilp32f/libgcc.a(subdf3.o)
 .debug_frame   0x00000000000039cc       0x20 /home/parag/bl_iot_sdk/toolchain/riscv/Linux/bin/../lib/gcc/riscv64-unknown-elf/8.3.0/rv32imf/ilp32f/libgcc.a(fixdfsi.o)

Cross Reference Table

Symbol                                            File
AON_Get_Xtal_CapCode                              /home/parag/bl_iot_sdk/customer_app/SWEMS/build_out/bl602_std/libbl602_std.a(bl602_romapi.o)
                                                  /home/parag/bl_iot_sdk/customer_app/SWEMS/build_out/bl602_std/libbl602_std.a(bl602_aon.o)
AON_LowPower_Enter_PDS0                           /home/parag/bl_iot_sdk/customer_app/SWEMS/build_out/bl602_std/libbl602_std.a(bl602_romapi.o)
                                                  /home/parag/bl_iot_sdk/customer_app/SWEMS/build_out/bl602_std/libbl602_std.a(bl602_aon.o)
AON_LowPower_Exit_PDS0                            /home/parag/bl_iot_sdk/customer_app/SWEMS/build_out/bl602_std/libbl602_std.a(bl602_romapi.o)
                                                  /home/parag/bl_iot_sdk/customer_app/SWEMS/build_out/bl602_std/libbl602_std.a(bl602_aon.o)
AON_Power_Off_BG                                  /home/parag/bl_iot_sdk/customer_app/SWEMS/build_out/bl602_std/libbl602_std.a(bl602_romapi.o)
                                                  /home/parag/bl_iot_sdk/customer_app/SWEMS/build_out/bl602_std/libbl602_std.a(bl602_aon.o)
AON_Power_Off_LDO11_SOC                           /home/parag/bl_iot_sdk/customer_app/SWEMS/build_out/bl602_std/libbl602_std.a(bl602_romapi.o)
                                                  /home/parag/bl_iot_sdk/customer_app/SWEMS/build_out/bl602_std/libbl602_std.a(bl602_aon.o)
AON_Power_Off_LDO15_RF                            /home/parag/bl_iot_sdk/customer_app/SWEMS/build_out/bl602_std/libbl602_std.a(bl602_romapi.o)
                                                  /home/parag/bl_iot_sdk/customer_app/SWEMS/build_out/bl602_std/libbl602_std.a(bl602_aon.o)
AON_Power_Off_MBG                                 /home/parag/bl_iot_sdk/customer_app/SWEMS/build_out/bl602_std/libbl602_std.a(bl602_romapi.o)
                                                  /home/parag/bl_iot_sdk/customer_app/SWEMS/build_out/bl602_std/libbl602_std.a(bl602_aon.o)
AON_Power_Off_SFReg                               /home/parag/bl_iot_sdk/customer_app/SWEMS/build_out/bl602_std/libbl602_std.a(bl602_romapi.o)
                                                  /home/parag/bl_iot_sdk/customer_app/SWEMS/build_out/bl602_std/libbl602_std.a(bl602_aon.o)
AON_Power_Off_XTAL                                /home/parag/bl_iot_sdk/customer_app/SWEMS/build_out/bl602_std/libbl602_std.a(bl602_romapi.o)
                                                  /home/parag/bl_iot_sdk/customer_app/SWEMS/build_out/bl602_std/libbl602_std.a(bl602_aon.o)
AON_Power_On_BG                                   /home/parag/bl_iot_sdk/customer_app/SWEMS/build_out/bl602_std/libbl602_std.a(bl602_romapi.o)
                                                  /home/parag/bl_iot_sdk/customer_app/SWEMS/build_out/bl602_std/libbl602_std.a(bl602_aon.o)
AON_Power_On_LDO11_SOC                            /home/parag/bl_iot_sdk/customer_app/SWEMS/build_out/bl602_std/libbl602_std.a(bl602_romapi.o)
                                                  /home/parag/bl_iot_sdk/customer_app/SWEMS/build_out/bl602_std/libbl602_std.a(bl602_aon.o)
AON_Power_On_LDO15_RF                             /home/parag/bl_iot_sdk/customer_app/SWEMS/build_out/bl602_std/libbl602_std.a(bl602_romapi.o)
                                                  /home/parag/bl_iot_sdk/customer_app/SWEMS/build_out/bl602_std/libbl602_std.a(bl602_aon.o)
AON_Power_On_MBG                                  /home/parag/bl_iot_sdk/customer_app/SWEMS/build_out/bl602_std/libbl602_std.a(bl602_romapi.o)
                                                  /home/parag/bl_iot_sdk/customer_app/SWEMS/build_out/bl602_std/libbl602_std.a(bl602_aon.o)
AON_Power_On_SFReg                                /home/parag/bl_iot_sdk/customer_app/SWEMS/build_out/bl602_std/libbl602_std.a(bl602_romapi.o)
                                                  /home/parag/bl_iot_sdk/customer_app/SWEMS/build_out/bl602_std/libbl602_std.a(bl602_aon.o)
AON_Power_On_XTAL                                 /home/parag/bl_iot_sdk/customer_app/SWEMS/build_out/bl602_std/libbl602_std.a(bl602_romapi.o)
                                                  /home/parag/bl_iot_sdk/customer_app/SWEMS/build_out/bl602_std/libbl602_std.a(bl602_aon.o)
                                                  /home/parag/bl_iot_sdk/customer_app/SWEMS/build_out/bl602_std/libbl602_std.a(bl602_glb.o)
AON_Set_LDO11_SOC_Sstart_Delay                    /home/parag/bl_iot_sdk/customer_app/SWEMS/build_out/bl602_std/libbl602_std.a(bl602_aon.o)
AON_Set_Xtal_CapCode                              /home/parag/bl_iot_sdk/customer_app/SWEMS/build_out/bl602_std/libbl602_std.a(bl602_romapi.o)
                                                  /home/parag/bl_iot_sdk/customer_app/SWEMS/build_out/bl602_std/libbl602_std.a(bl602_aon.o)
ASM_Delay_Us                                      /home/parag/bl_iot_sdk/customer_app/SWEMS/build_out/bl602_std/libbl602_std.a(bl602_romapi.o)
BFLB_Soft_CRC16                                   /home/parag/bl_iot_sdk/customer_app/SWEMS/build_out/bl602_std/libbl602_std.a(softcrc.o)
BFLB_Soft_CRC32                                   /home/parag/bl_iot_sdk/customer_app/SWEMS/build_out/bl602_std/libbl602_std.a(bl602_romapi.o)
                                                  /home/parag/bl_iot_sdk/customer_app/SWEMS/build_out/bl602_std/libbl602_std.a(softcrc.o)
                                                  /home/parag/bl_iot_sdk/customer_app/SWEMS/build_out/hal_drv/libhal_drv.a(bl_boot2.o)
BFLB_Soft_CRC32_Table                             /home/parag/bl_iot_sdk/customer_app/SWEMS/build_out/bl602_std/libbl602_std.a(softcrc.o)
BL602_Delay_MS                                    /home/parag/bl_iot_sdk/customer_app/SWEMS/build_out/bl602_std/libbl602_std.a(bl602_romapi.o)
                                                  /home/parag/bl_iot_sdk/customer_app/SWEMS/build_out/bl602_std/libbl602_std.a(bl602_hbn.o)
BL602_Delay_US                                    /home/parag/bl_iot_sdk/customer_app/SWEMS/build_out/bl602_std/libbl602_std.a(bl602_romapi.o)
                                                  /home/parag/bl_iot_sdk/customer_app/SWEMS/build_out/bl602_std/libbl602_std.a(bl602_ef_ctrl.o)
                                                  /home/parag/bl_iot_sdk/customer_app/SWEMS/build_out/bl602_std/libbl602_std.a(bl602_pds.o)
                                                  /home/parag/bl_iot_sdk/customer_app/SWEMS/build_out/bl602_std/libbl602_std.a(bl602_aon.o)
                                                  /home/parag/bl_iot_sdk/customer_app/SWEMS/build_out/bl602_std/libbl602_std.a(bl602_hbn.o)
                                                  /home/parag/bl_iot_sdk/customer_app/SWEMS/build_out/bl602_std/libbl602_std.a(bl602_glb.o)
BL602_MemCmp                                      /home/parag/bl_iot_sdk/customer_app/SWEMS/build_out/bl602_std/libbl602_std.a(bl602_romapi.o)
BL602_MemCpy                                      /home/parag/bl_iot_sdk/customer_app/SWEMS/build_out/bl602_std/libbl602_std.a(bl602_romapi.o)
BL602_MemCpy4                                     /home/parag/bl_iot_sdk/customer_app/SWEMS/build_out/bl602_std/libbl602_std.a(bl602_romapi.o)
                                                  /home/parag/bl_iot_sdk/customer_app/SWEMS/build_out/bl602_std/libbl602_std.a(bl602_ef_ctrl.o)
BL602_MemCpy_Fast                                 /home/parag/bl_iot_sdk/customer_app/SWEMS/build_out/bl602_std/libbl602_std.a(bl602_romapi.o)
BL602_MemSet                                      /home/parag/bl_iot_sdk/customer_app/SWEMS/build_out/bl602_std/libbl602_std.a(bl602_romapi.o)
BL602_MemSet4                                     /home/parag/bl_iot_sdk/customer_app/SWEMS/build_out/bl602_std/libbl602_std.a(bl602_romapi.o)
BMX_ERR_INT_Callback_Install                      /home/parag/bl_iot_sdk/customer_app/SWEMS/build_out/bl602_std/libbl602_std.a(bl602_glb.o)
BMX_TIMEOUT_INT_Callback_Install                  /home/parag/bl_iot_sdk/customer_app/SWEMS/build_out/bl602_std/libbl602_std.a(bl602_glb.o)
EF_Ctrl_AutoLoad_Done                             /home/parag/bl_iot_sdk/customer_app/SWEMS/build_out/bl602_std/libbl602_std.a(bl602_romapi.o)
                                                  /home/parag/bl_iot_sdk/customer_app/SWEMS/build_out/bl602_std/libbl602_std.a(bl602_ef_ctrl.o)
EF_Ctrl_Busy                                      /home/parag/bl_iot_sdk/customer_app/SWEMS/build_out/bl602_std/libbl602_std.a(bl602_romapi.o)
                                                  /home/parag/bl_iot_sdk/customer_app/SWEMS/build_out/bl602_std/libbl602_std.a(bl602_ef_ctrl.o)
EF_Ctrl_Clear                                     /home/parag/bl_iot_sdk/customer_app/SWEMS/build_out/bl602_std/libbl602_std.a(bl602_romapi.o)
                                                  /home/parag/bl_iot_sdk/customer_app/SWEMS/build_out/bl602_std/libbl602_std.a(bl602_ef_ctrl.o)
EF_Ctrl_Crc_Enable                                /home/parag/bl_iot_sdk/customer_app/SWEMS/build_out/bl602_std/libbl602_std.a(bl602_ef_ctrl.o)
EF_Ctrl_Crc_Is_Busy                               /home/parag/bl_iot_sdk/customer_app/SWEMS/build_out/bl602_std/libbl602_std.a(bl602_ef_ctrl.o)
EF_Ctrl_Crc_Result                                /home/parag/bl_iot_sdk/customer_app/SWEMS/build_out/bl602_std/libbl602_std.a(bl602_ef_ctrl.o)
EF_Ctrl_Crc_Set_Golden                            /home/parag/bl_iot_sdk/customer_app/SWEMS/build_out/bl602_std/libbl602_std.a(bl602_ef_ctrl.o)
EF_Ctrl_Get_Trim_Enable                           /home/parag/bl_iot_sdk/customer_app/SWEMS/build_out/bl602_std/libbl602_std.a(bl602_ef_ctrl.o)
EF_Ctrl_Get_Trim_Parity                           /home/parag/bl_iot_sdk/customer_app/SWEMS/build_out/bl602_std/libbl602_std.a(bl602_romapi.o)
                                                  /home/parag/bl_iot_sdk/customer_app/SWEMS/build_out/bl602_std/libbl602_std.a(bl602_ef_ctrl.o)
                                                  /home/parag/bl_iot_sdk/customer_app/SWEMS/build_out/bl602_std/libbl602_std.a(bl602_pds.o)
                                                  /home/parag/bl_iot_sdk/customer_app/SWEMS/build_out/bl602_std/libbl602_std.a(bl602_hbn.o)
EF_Ctrl_Is_All_Bits_Zero                          /home/parag/bl_iot_sdk/customer_app/SWEMS/build_out/bl602_std/libbl602_std.a(bl602_ef_ctrl.o)
EF_Ctrl_Is_CapCode_Slot_Empty                     /home/parag/bl_iot_sdk/customer_app/SWEMS/build_out/bl602_std/libbl602_std.a(bl602_ef_ctrl.o)
EF_Ctrl_Is_MAC_Address_Slot_Empty                 /home/parag/bl_iot_sdk/customer_app/SWEMS/build_out/bl602_std/libbl602_std.a(bl602_ef_ctrl.o)
EF_Ctrl_Is_PowerOffset_Slot_Empty                 /home/parag/bl_iot_sdk/customer_app/SWEMS/build_out/bl602_std/libbl602_std.a(bl602_ef_ctrl.o)
EF_Ctrl_Load_Efuse_R0                             /home/parag/bl_iot_sdk/customer_app/SWEMS/build_out/bl602_std/libbl602_std.a(bl602_romapi.o)
                                                  /home/parag/bl_iot_sdk/customer_app/SWEMS/build_out/bl602_std/libbl602_std.a(bl602_ef_ctrl.o)
EF_Ctrl_Program_Direct_R0                         /home/parag/bl_iot_sdk/customer_app/SWEMS/build_out/bl602_std/libbl602_std.a(bl602_ef_ctrl.o)
EF_Ctrl_Program_Efuse_0                           /home/parag/bl_iot_sdk/customer_app/SWEMS/build_out/bl602_std/libbl602_std.a(bl602_romapi.o)
                                                  /home/parag/bl_iot_sdk/customer_app/SWEMS/build_out/bl602_std/libbl602_std.a(bl602_ef_ctrl.o)
EF_Ctrl_Read_ADC_Gain_Trim                        /home/parag/bl_iot_sdk/customer_app/SWEMS/build_out/bl602_std/libbl602_std.a(bl602_ef_ctrl.o)
EF_Ctrl_Read_AES_Key                              /home/parag/bl_iot_sdk/customer_app/SWEMS/build_out/bl602_std/libbl602_std.a(bl602_ef_ctrl.o)
EF_Ctrl_Read_Ana_Trim                             /home/parag/bl_iot_sdk/customer_app/SWEMS/build_out/bl602_std/libbl602_std.a(bl602_ef_ctrl.o)
EF_Ctrl_Read_CapCode_Opt                          /home/parag/bl_iot_sdk/customer_app/SWEMS/build_out/bl602_std/libbl602_std.a(bl602_ef_ctrl.o)
EF_Ctrl_Read_Chip_ID                              /home/parag/bl_iot_sdk/customer_app/SWEMS/build_out/bl602_std/libbl602_std.a(bl602_ef_ctrl.o)
EF_Ctrl_Read_Dbg_Pwd                              /home/parag/bl_iot_sdk/customer_app/SWEMS/build_out/bl602_std/libbl602_std.a(bl602_ef_ctrl.o)
EF_Ctrl_Read_Device_Info                          /home/parag/bl_iot_sdk/customer_app/SWEMS/build_out/bl602_std/libbl602_std.a(bl602_ef_ctrl.o)
EF_Ctrl_Read_Direct_R0                            /home/parag/bl_iot_sdk/customer_app/SWEMS/build_out/bl602_std/libbl602_std.a(bl602_ef_ctrl.o)
EF_Ctrl_Read_MAC_Address                          /home/parag/bl_iot_sdk/customer_app/SWEMS/build_out/bl602_std/libbl602_std.a(bl602_ef_ctrl.o)
EF_Ctrl_Read_MAC_Address_Opt                      /home/parag/bl_iot_sdk/customer_app/SWEMS/build_out/bl602_std/libbl602_std.a(bl602_ef_ctrl.o)
EF_Ctrl_Read_MAC_Address_Raw                      /home/parag/bl_iot_sdk/customer_app/SWEMS/build_out/bl602_std/libbl602_std.a(bl602_ef_ctrl.o)
EF_Ctrl_Read_PowerOffset_Opt                      /home/parag/bl_iot_sdk/customer_app/SWEMS/build_out/bl602_std/libbl602_std.a(bl602_ef_ctrl.o)
EF_Ctrl_Read_R0                                   /home/parag/bl_iot_sdk/customer_app/SWEMS/build_out/bl602_std/libbl602_std.a(bl602_ef_ctrl.o)
EF_Ctrl_Read_RC32K_Trim                           /home/parag/bl_iot_sdk/customer_app/SWEMS/build_out/bl602_std/libbl602_std.a(bl602_romapi.o)
                                                  /home/parag/bl_iot_sdk/customer_app/SWEMS/build_out/bl602_std/libbl602_std.a(bl602_ef_ctrl.o)
                                                  /home/parag/bl_iot_sdk/customer_app/SWEMS/build_out/bl602_std/libbl602_std.a(bl602_hbn.o)
EF_Ctrl_Read_RC32M_Trim                           /home/parag/bl_iot_sdk/customer_app/SWEMS/build_out/bl602_std/libbl602_std.a(bl602_romapi.o)
                                                  /home/parag/bl_iot_sdk/customer_app/SWEMS/build_out/bl602_std/libbl602_std.a(bl602_ef_ctrl.o)
                                                  /home/parag/bl_iot_sdk/customer_app/SWEMS/build_out/bl602_std/libbl602_std.a(bl602_pds.o)
EF_Ctrl_Read_Secure_Boot                          /home/parag/bl_iot_sdk/customer_app/SWEMS/build_out/bl602_std/libbl602_std.a(bl602_ef_ctrl.o)
EF_Ctrl_Read_Secure_Cfg                           /home/parag/bl_iot_sdk/customer_app/SWEMS/build_out/bl602_std/libbl602_std.a(bl602_ef_ctrl.o)
EF_Ctrl_Read_Sw_Usage                             /home/parag/bl_iot_sdk/customer_app/SWEMS/build_out/bl602_std/libbl602_std.a(bl602_ef_ctrl.o)
EF_Ctrl_Read_TSEN_Trim                            /home/parag/bl_iot_sdk/customer_app/SWEMS/build_out/bl602_std/libbl602_std.a(bl602_ef_ctrl.o)
EF_Ctrl_Readlock_AES_Key                          /home/parag/bl_iot_sdk/customer_app/SWEMS/build_out/bl602_std/libbl602_std.a(bl602_ef_ctrl.o)
EF_Ctrl_Readlock_Dbg_Pwd                          /home/parag/bl_iot_sdk/customer_app/SWEMS/build_out/bl602_std/libbl602_std.a(bl602_ef_ctrl.o)
EF_Ctrl_Sw_AHB_Clk_0                              /home/parag/bl_iot_sdk/customer_app/SWEMS/build_out/bl602_std/libbl602_std.a(bl602_romapi.o)
                                                  /home/parag/bl_iot_sdk/customer_app/SWEMS/build_out/bl602_std/libbl602_std.a(bl602_ef_ctrl.o)
EF_Ctrl_Write_AES_Key                             /home/parag/bl_iot_sdk/customer_app/SWEMS/build_out/bl602_std/libbl602_std.a(bl602_ef_ctrl.o)
EF_Ctrl_Write_Ana_Trim                            /home/parag/bl_iot_sdk/customer_app/SWEMS/build_out/bl602_std/libbl602_std.a(bl602_ef_ctrl.o)
EF_Ctrl_Write_CapCode_Opt                         /home/parag/bl_iot_sdk/customer_app/SWEMS/build_out/bl602_std/libbl602_std.a(bl602_ef_ctrl.o)
EF_Ctrl_Write_Dbg_Pwd                             /home/parag/bl_iot_sdk/customer_app/SWEMS/build_out/bl602_std/libbl602_std.a(bl602_ef_ctrl.o)
EF_Ctrl_Write_MAC_Address                         /home/parag/bl_iot_sdk/customer_app/SWEMS/build_out/bl602_std/libbl602_std.a(bl602_ef_ctrl.o)
EF_Ctrl_Write_MAC_Address_Opt                     /home/parag/bl_iot_sdk/customer_app/SWEMS/build_out/bl602_std/libbl602_std.a(bl602_ef_ctrl.o)
EF_Ctrl_Write_PowerOffset_Opt                     /home/parag/bl_iot_sdk/customer_app/SWEMS/build_out/bl602_std/libbl602_std.a(bl602_ef_ctrl.o)
EF_Ctrl_Write_R0                                  /home/parag/bl_iot_sdk/customer_app/SWEMS/build_out/bl602_std/libbl602_std.a(bl602_ef_ctrl.o)
EF_Ctrl_Write_Secure_Boot                         /home/parag/bl_iot_sdk/customer_app/SWEMS/build_out/bl602_std/libbl602_std.a(bl602_ef_ctrl.o)
EF_Ctrl_Write_Secure_Cfg                          /home/parag/bl_iot_sdk/customer_app/SWEMS/build_out/bl602_std/libbl602_std.a(bl602_ef_ctrl.o)
EF_Ctrl_Write_Sw_Usage                            /home/parag/bl_iot_sdk/customer_app/SWEMS/build_out/bl602_std/libbl602_std.a(bl602_ef_ctrl.o)
EF_Ctrl_Writelock_AES_Key                         /home/parag/bl_iot_sdk/customer_app/SWEMS/build_out/bl602_std/libbl602_std.a(bl602_ef_ctrl.o)
EF_Ctrl_Writelock_Dbg_Pwd                         /home/parag/bl_iot_sdk/customer_app/SWEMS/build_out/bl602_std/libbl602_std.a(bl602_ef_ctrl.o)
EF_Ctrl_Writelock_MAC_Address                     /home/parag/bl_iot_sdk/customer_app/SWEMS/build_out/bl602_std/libbl602_std.a(bl602_ef_ctrl.o)
EF_Ctrl_Writelock_Sw_Usage                        /home/parag/bl_iot_sdk/customer_app/SWEMS/build_out/bl602_std/libbl602_std.a(bl602_ef_ctrl.o)
GLB_AHB_Slave1_Clock_Gate                         /home/parag/bl_iot_sdk/customer_app/SWEMS/build_out/bl602_std/libbl602_std.a(bl602_glb.o)
GLB_AHB_Slave1_Reset                              /home/parag/bl_iot_sdk/customer_app/SWEMS/build_out/bl602_std/libbl602_std.a(bl602_glb.o)
                                                  /home/parag/bl_iot_sdk/customer_app/SWEMS/build_out/bl602_std/libbl602_std.a(bl602_uart.o)
GLB_BMX_Addr_Monitor_Disable                      /home/parag/bl_iot_sdk/customer_app/SWEMS/build_out/bl602_std/libbl602_std.a(bl602_glb.o)
GLB_BMX_Addr_Monitor_Enable                       /home/parag/bl_iot_sdk/customer_app/SWEMS/build_out/bl602_std/libbl602_std.a(bl602_glb.o)
GLB_BMX_BusErrResponse_Disable                    /home/parag/bl_iot_sdk/customer_app/SWEMS/build_out/bl602_std/libbl602_std.a(bl602_glb.o)
GLB_BMX_BusErrResponse_Enable                     /home/parag/bl_iot_sdk/customer_app/SWEMS/build_out/bl602_std/libbl602_std.a(bl602_glb.o)
GLB_BMX_Get_Err_Addr                              /home/parag/bl_iot_sdk/customer_app/SWEMS/build_out/bl602_std/libbl602_std.a(bl602_glb.o)
GLB_BMX_Get_Status                                /home/parag/bl_iot_sdk/customer_app/SWEMS/build_out/bl602_std/libbl602_std.a(bl602_glb.o)
GLB_BMX_Init                                      /home/parag/bl_iot_sdk/customer_app/SWEMS/build_out/bl602_std/libbl602_std.a(bl602_glb.o)
GLB_Clr_GPIO_IntStatus                            /home/parag/bl_iot_sdk/customer_app/SWEMS/build_out/bl602_std/libbl602_std.a(bl602_glb.o)
GLB_Deswap_Flash_Pin                              /home/parag/bl_iot_sdk/customer_app/SWEMS/build_out/bl602_std/libbl602_std.a(bl602_romapi.o)
                                                  /home/parag/bl_iot_sdk/customer_app/SWEMS/build_out/bl602_std/libbl602_std.a(bl602_glb.o)
GLB_GPIO_Func_Init                                /home/parag/bl_iot_sdk/customer_app/SWEMS/build_out/bl602_std/libbl602_std.a(bl602_glb.o)
GLB_GPIO_Get_Fun                                  /home/parag/bl_iot_sdk/customer_app/SWEMS/build_out/bl602_std/libbl602_std.a(bl602_romapi.o)
                                                  /home/parag/bl_iot_sdk/customer_app/SWEMS/build_out/bl602_std/libbl602_std.a(bl602_glb.o)
GLB_GPIO_Get_Real_Fun                             /home/parag/bl_iot_sdk/customer_app/SWEMS/build_out/bl602_std/libbl602_std.a(bl602_glb.o)
GLB_GPIO_INPUT_Disable                            /home/parag/bl_iot_sdk/customer_app/SWEMS/build_out/bl602_std/libbl602_std.a(bl602_glb.o)
GLB_GPIO_INPUT_Enable                             /home/parag/bl_iot_sdk/customer_app/SWEMS/build_out/bl602_std/libbl602_std.a(bl602_glb.o)
GLB_GPIO_INT0_Callback_Install                    /home/parag/bl_iot_sdk/customer_app/SWEMS/build_out/bl602_std/libbl602_std.a(bl602_glb.o)
GLB_GPIO_Init                                     /home/parag/bl_iot_sdk/customer_app/SWEMS/build_out/bl602_std/libbl602_std.a(bl602_romapi.o)
                                                  /home/parag/bl_iot_sdk/customer_app/SWEMS/build_out/bl602_std/libbl602_std.a(bl602_glb.o)
                                                  /home/parag/bl_iot_sdk/customer_app/SWEMS/build_out/hal_drv/libhal_drv.a(bl_uart.o)
                                                  /home/parag/bl_iot_sdk/customer_app/SWEMS/build_out/hal_drv/libhal_drv.a(bl_gpio.o)
GLB_GPIO_IntClear                                 /home/parag/bl_iot_sdk/customer_app/SWEMS/build_out/bl602_std/libbl602_std.a(bl602_glb.o)
GLB_GPIO_IntMask                                  /home/parag/bl_iot_sdk/customer_app/SWEMS/build_out/bl602_std/libbl602_std.a(bl602_glb.o)
                                                  /home/parag/bl_iot_sdk/customer_app/SWEMS/build_out/hal_drv/libhal_drv.a(bl_gpio.o)
GLB_GPIO_OUTPUT_Disable                           /home/parag/bl_iot_sdk/customer_app/SWEMS/build_out/bl602_std/libbl602_std.a(bl602_romapi.o)
                                                  /home/parag/bl_iot_sdk/customer_app/SWEMS/build_out/bl602_std/libbl602_std.a(bl602_glb.o)
GLB_GPIO_OUTPUT_Enable                            /home/parag/bl_iot_sdk/customer_app/SWEMS/build_out/bl602_std/libbl602_std.a(bl602_romapi.o)
                                                  /home/parag/bl_iot_sdk/customer_app/SWEMS/build_out/bl602_std/libbl602_std.a(bl602_glb.o)
GLB_GPIO_Read                                     /home/parag/bl_iot_sdk/customer_app/SWEMS/build_out/bl602_std/libbl602_std.a(bl602_glb.o)
                                                  /home/parag/bl_iot_sdk/customer_app/SWEMS/build_out/hal_drv/libhal_drv.a(bl_gpio.o)
GLB_GPIO_Set_HZ                                   /home/parag/bl_iot_sdk/customer_app/SWEMS/build_out/bl602_std/libbl602_std.a(bl602_romapi.o)
                                                  /home/parag/bl_iot_sdk/customer_app/SWEMS/build_out/bl602_std/libbl602_std.a(bl602_glb.o)
GLB_GPIO_Write                                    /home/parag/bl_iot_sdk/customer_app/SWEMS/build_out/bl602_std/libbl602_std.a(bl602_glb.o)
                                                  /home/parag/bl_iot_sdk/customer_app/SWEMS/build_out/hal_drv/libhal_drv.a(bl_gpio.o)
GLB_Get_BCLK_Div                                  /home/parag/bl_iot_sdk/customer_app/SWEMS/build_out/bl602_std/libbl602_std.a(bl602_romapi.o)
                                                  /home/parag/bl_iot_sdk/customer_app/SWEMS/build_out/bl602_std/libbl602_std.a(bl602_glb.o)
GLB_Get_GPIO_IntCtlMod                            /home/parag/bl_iot_sdk/customer_app/SWEMS/build_out/bl602_std/libbl602_std.a(bl602_glb.o)
GLB_Get_GPIO_IntStatus                            /home/parag/bl_iot_sdk/customer_app/SWEMS/build_out/bl602_std/libbl602_std.a(bl602_glb.o)
GLB_Get_HCLK_Div                                  /home/parag/bl_iot_sdk/customer_app/SWEMS/build_out/bl602_std/libbl602_std.a(bl602_romapi.o)
                                                  /home/parag/bl_iot_sdk/customer_app/SWEMS/build_out/bl602_std/libbl602_std.a(bl602_glb.o)
GLB_Get_Root_CLK_Sel                              /home/parag/bl_iot_sdk/customer_app/SWEMS/build_out/bl602_std/libbl602_std.a(bl602_romapi.o)
                                                  /home/parag/bl_iot_sdk/customer_app/SWEMS/build_out/bl602_std/libbl602_std.a(bl602_glb.o)
GLB_Get_SRAM_PARM                                 /home/parag/bl_iot_sdk/customer_app/SWEMS/build_out/bl602_std/libbl602_std.a(bl602_glb.o)
GLB_Get_SRAM_RET                                  /home/parag/bl_iot_sdk/customer_app/SWEMS/build_out/bl602_std/libbl602_std.a(bl602_glb.o)
GLB_Get_SRAM_SLP                                  /home/parag/bl_iot_sdk/customer_app/SWEMS/build_out/bl602_std/libbl602_std.a(bl602_glb.o)
GLB_IR_LED_Driver_Disable                         /home/parag/bl_iot_sdk/customer_app/SWEMS/build_out/bl602_std/libbl602_std.a(bl602_glb.o)
GLB_IR_LED_Driver_Enable                          /home/parag/bl_iot_sdk/customer_app/SWEMS/build_out/bl602_std/libbl602_std.a(bl602_glb.o)
GLB_IR_LED_Driver_Ibias                           /home/parag/bl_iot_sdk/customer_app/SWEMS/build_out/bl602_std/libbl602_std.a(bl602_glb.o)
GLB_IR_RX_GPIO_Sel                                /home/parag/bl_iot_sdk/customer_app/SWEMS/build_out/bl602_std/libbl602_std.a(bl602_glb.o)
GLB_JTAG_Sig_Swap_Set                             /home/parag/bl_iot_sdk/customer_app/SWEMS/build_out/bl602_std/libbl602_std.a(bl602_glb.o)
GLB_Platform_Wakeup_Disable                       /home/parag/bl_iot_sdk/customer_app/SWEMS/build_out/bl602_std/libbl602_std.a(bl602_glb.o)
GLB_Platform_Wakeup_Enable                        /home/parag/bl_iot_sdk/customer_app/SWEMS/build_out/bl602_std/libbl602_std.a(bl602_glb.o)
GLB_SW_CPU_Reset                                  /home/parag/bl_iot_sdk/customer_app/SWEMS/build_out/bl602_std/libbl602_std.a(bl602_romapi.o)
                                                  /home/parag/bl_iot_sdk/customer_app/SWEMS/build_out/bl602_std/libbl602_std.a(bl602_glb.o)
GLB_SW_POR_Reset                                  /home/parag/bl_iot_sdk/customer_app/SWEMS/build_out/bl602_std/libbl602_std.a(bl602_romapi.o)
                                                  /home/parag/bl_iot_sdk/customer_app/SWEMS/build_out/bl602_std/libbl602_std.a(bl602_glb.o)
                                                  /home/parag/bl_iot_sdk/customer_app/SWEMS/build_out/hal_drv/libhal_drv.a(bl_sys.o)
GLB_SW_System_Reset                               /home/parag/bl_iot_sdk/customer_app/SWEMS/build_out/bl602_std/libbl602_std.a(bl602_romapi.o)
                                                  /home/parag/bl_iot_sdk/customer_app/SWEMS/build_out/bl602_std/libbl602_std.a(bl602_glb.o)
                                                  /home/parag/bl_iot_sdk/customer_app/SWEMS/build_out/hal_drv/libhal_drv.a(bl_sys.o)
GLB_Select_External_Flash                         /home/parag/bl_iot_sdk/customer_app/SWEMS/build_out/bl602_std/libbl602_std.a(bl602_romapi.o)
                                                  /home/parag/bl_iot_sdk/customer_app/SWEMS/build_out/bl602_std/libbl602_std.a(bl602_glb.o)
GLB_Select_Internal_Flash                         /home/parag/bl_iot_sdk/customer_app/SWEMS/build_out/bl602_std/libbl602_std.a(bl602_romapi.o)
                                                  /home/parag/bl_iot_sdk/customer_app/SWEMS/build_out/bl602_std/libbl602_std.a(bl602_glb.o)
GLB_Set_ADC_CLK                                   /home/parag/bl_iot_sdk/customer_app/SWEMS/build_out/bl602_std/libbl602_std.a(bl602_glb.o)
GLB_Set_BLE_CLK                                   /home/parag/bl_iot_sdk/customer_app/SWEMS/build_out/bl602_std/libbl602_std.a(bl602_glb.o)
GLB_Set_BT_Coex_Signal                            /home/parag/bl_iot_sdk/customer_app/SWEMS/build_out/bl602_std/libbl602_std.a(bl602_glb.o)
GLB_Set_DAC_CLK                                   /home/parag/bl_iot_sdk/customer_app/SWEMS/build_out/bl602_std/libbl602_std.a(bl602_glb.o)
GLB_Set_DIG_32K_CLK                               /home/parag/bl_iot_sdk/customer_app/SWEMS/build_out/bl602_std/libbl602_std.a(bl602_glb.o)
GLB_Set_DIG_512K_CLK                              /home/parag/bl_iot_sdk/customer_app/SWEMS/build_out/bl602_std/libbl602_std.a(bl602_glb.o)
GLB_Set_DIG_CLK_Sel                               /home/parag/bl_iot_sdk/customer_app/SWEMS/build_out/bl602_std/libbl602_std.a(bl602_glb.o)
GLB_Set_DMA_CLK                                   /home/parag/bl_iot_sdk/customer_app/SWEMS/build_out/bl602_std/libbl602_std.a(bl602_glb.o)
GLB_Set_EM_Sel                                    /home/parag/bl_iot_sdk/customer_app/SWEMS/build_out/bl602_std/libbl602_std.a(bl602_glb.o)
                                                  /home/parag/bl_iot_sdk/customer_app/SWEMS/build_out/hal_drv/libhal_drv.a(bl_sys.o)
GLB_Set_GPIO_IntMod                               /home/parag/bl_iot_sdk/customer_app/SWEMS/build_out/bl602_std/libbl602_std.a(bl602_glb.o)
                                                  /home/parag/bl_iot_sdk/customer_app/SWEMS/build_out/hal_drv/libhal_drv.a(bl_gpio.o)
GLB_Set_I2C_CLK                                   /home/parag/bl_iot_sdk/customer_app/SWEMS/build_out/bl602_std/libbl602_std.a(bl602_glb.o)
GLB_Set_IR_CLK                                    /home/parag/bl_iot_sdk/customer_app/SWEMS/build_out/bl602_std/libbl602_std.a(bl602_glb.o)
GLB_Set_MTimer_CLK                                /home/parag/bl_iot_sdk/customer_app/SWEMS/build_out/bl602_std/libbl602_std.a(bl602_glb.o)
GLB_Set_PKA_CLK_Sel                               /home/parag/bl_iot_sdk/customer_app/SWEMS/build_out/bl602_std/libbl602_std.a(bl602_romapi.o)
                                                  /home/parag/bl_iot_sdk/customer_app/SWEMS/build_out/bl602_std/libbl602_std.a(bl602_glb.o)
GLB_Set_SF_CLK                                    /home/parag/bl_iot_sdk/customer_app/SWEMS/build_out/bl602_std/libbl602_std.a(bl602_romapi.o)
                                                  /home/parag/bl_iot_sdk/customer_app/SWEMS/build_out/bl602_std/libbl602_std.a(bl602_glb.o)
GLB_Set_SPI_0_ACT_MOD_Sel                         /home/parag/bl_iot_sdk/customer_app/SWEMS/build_out/bl602_std/libbl602_std.a(bl602_glb.o)
GLB_Set_SPI_CLK                                   /home/parag/bl_iot_sdk/customer_app/SWEMS/build_out/bl602_std/libbl602_std.a(bl602_glb.o)
GLB_Set_SRAM_PARM                                 /home/parag/bl_iot_sdk/customer_app/SWEMS/build_out/bl602_std/libbl602_std.a(bl602_glb.o)
GLB_Set_SRAM_RET                                  /home/parag/bl_iot_sdk/customer_app/SWEMS/build_out/bl602_std/libbl602_std.a(bl602_glb.o)
GLB_Set_SRAM_SLP                                  /home/parag/bl_iot_sdk/customer_app/SWEMS/build_out/bl602_std/libbl602_std.a(bl602_glb.o)
GLB_Set_System_CLK                                /home/parag/bl_iot_sdk/customer_app/SWEMS/build_out/bl602_std/libbl602_std.a(bl602_romapi.o)
                                                  /home/parag/bl_iot_sdk/customer_app/SWEMS/build_out/bl602_std/libbl602_std.a(bl602_glb.o)
                                                  /home/parag/bl_iot_sdk/customer_app/SWEMS/build_out/bl602_std/libbl602_std.a(bl602_hbn.o)
GLB_Set_System_CLK_Div                            /home/parag/bl_iot_sdk/customer_app/SWEMS/build_out/bl602_std/libbl602_std.a(bl602_romapi.o)
                                                  /home/parag/bl_iot_sdk/customer_app/SWEMS/build_out/bl602_std/libbl602_std.a(bl602_glb.o)
GLB_Set_UART_CLK                                  /home/parag/bl_iot_sdk/customer_app/SWEMS/build_out/bl602_std/libbl602_std.a(bl602_glb.o)
                                                  /home/parag/bl_iot_sdk/customer_app/SWEMS/build_out/hal_drv/libhal_drv.a(bl_uart.o)
GLB_Set_WiFi_Core_CLK                             /home/parag/bl_iot_sdk/customer_app/SWEMS/build_out/bl602_std/libbl602_std.a(bl602_glb.o)
GLB_Set_WiFi_Encrypt_CLK                          /home/parag/bl_iot_sdk/customer_app/SWEMS/build_out/bl602_std/libbl602_std.a(bl602_glb.o)
GLB_Swap_Flash_Pin                                /home/parag/bl_iot_sdk/customer_app/SWEMS/build_out/bl602_std/libbl602_std.a(bl602_romapi.o)
                                                  /home/parag/bl_iot_sdk/customer_app/SWEMS/build_out/bl602_std/libbl602_std.a(bl602_glb.o)
GLB_Swap_SPI_0_MOSI_With_MISO                     /home/parag/bl_iot_sdk/customer_app/SWEMS/build_out/bl602_std/libbl602_std.a(bl602_glb.o)
GLB_UART_Fun_Sel                                  /home/parag/bl_iot_sdk/customer_app/SWEMS/build_out/bl602_std/libbl602_std.a(bl602_glb.o)
                                                  /home/parag/bl_iot_sdk/customer_app/SWEMS/build_out/hal_drv/libhal_drv.a(bl_uart.o)
GLB_UART_Sig_Swap_Set                             /home/parag/bl_iot_sdk/customer_app/SWEMS/build_out/bl602_std/libbl602_std.a(bl602_glb.o)
HBN_32K_Sel                                       /home/parag/bl_iot_sdk/customer_app/SWEMS/build_out/bl602_std/libbl602_std.a(bl602_romapi.o)
                                                  /home/parag/bl_iot_sdk/customer_app/SWEMS/build_out/bl602_std/libbl602_std.a(bl602_hbn.o)
                                                  /home/parag/bl_iot_sdk/customer_app/SWEMS/build_out/hal_drv/libhal_drv.a(bl_rtc.o)
HBN_Aon_Pad_IeSmt_Cfg                             /home/parag/bl_iot_sdk/customer_app/SWEMS/build_out/bl602_std/libbl602_std.a(bl602_hbn.o)
                                                  /home/parag/bl_iot_sdk/customer_app/SWEMS/build_out/hal_drv/libhal_drv.a(bl_sys.o)
HBN_App_Reset                                     /home/parag/bl_iot_sdk/customer_app/SWEMS/build_out/bl602_std/libbl602_std.a(bl602_hbn.o)
HBN_Clear_IRQ                                     /home/parag/bl_iot_sdk/customer_app/SWEMS/build_out/bl602_std/libbl602_std.a(bl602_hbn.o)
HBN_Clear_RTC_Counter                             /home/parag/bl_iot_sdk/customer_app/SWEMS/build_out/bl602_std/libbl602_std.a(bl602_hbn.o)
                                                  /home/parag/bl_iot_sdk/customer_app/SWEMS/build_out/hal_drv/libhal_drv.a(bl_rtc.o)
HBN_Clear_RTC_INT                                 /home/parag/bl_iot_sdk/customer_app/SWEMS/build_out/bl602_std/libbl602_std.a(bl602_hbn.o)
HBN_Disable                                       /home/parag/bl_iot_sdk/customer_app/SWEMS/build_out/bl602_std/libbl602_std.a(bl602_hbn.o)
HBN_Disable_AComp0_IRQ                            /home/parag/bl_iot_sdk/customer_app/SWEMS/build_out/bl602_std/libbl602_std.a(bl602_hbn.o)
HBN_Disable_AComp1_IRQ                            /home/parag/bl_iot_sdk/customer_app/SWEMS/build_out/bl602_std/libbl602_std.a(bl602_hbn.o)
HBN_Disable_BOR_IRQ                               /home/parag/bl_iot_sdk/customer_app/SWEMS/build_out/bl602_std/libbl602_std.a(bl602_hbn.o)
HBN_Enable                                        /home/parag/bl_iot_sdk/customer_app/SWEMS/build_out/bl602_std/libbl602_std.a(bl602_romapi.o)
                                                  /home/parag/bl_iot_sdk/customer_app/SWEMS/build_out/bl602_std/libbl602_std.a(bl602_hbn.o)
HBN_Enable_AComp0_IRQ                             /home/parag/bl_iot_sdk/customer_app/SWEMS/build_out/bl602_std/libbl602_std.a(bl602_hbn.o)
HBN_Enable_AComp1_IRQ                             /home/parag/bl_iot_sdk/customer_app/SWEMS/build_out/bl602_std/libbl602_std.a(bl602_hbn.o)
HBN_Enable_BOR_IRQ                                /home/parag/bl_iot_sdk/customer_app/SWEMS/build_out/bl602_std/libbl602_std.a(bl602_hbn.o)
HBN_Enable_RTC_Counter                            /home/parag/bl_iot_sdk/customer_app/SWEMS/build_out/bl602_std/libbl602_std.a(bl602_hbn.o)
                                                  /home/parag/bl_iot_sdk/customer_app/SWEMS/build_out/hal_drv/libhal_drv.a(bl_rtc.o)
HBN_GPIO7_Dbg_Pull_Cfg                            /home/parag/bl_iot_sdk/customer_app/SWEMS/build_out/bl602_std/libbl602_std.a(bl602_romapi.o)
                                                  /home/parag/bl_iot_sdk/customer_app/SWEMS/build_out/bl602_std/libbl602_std.a(bl602_hbn.o)
HBN_GPIO_INT_Disable                              /home/parag/bl_iot_sdk/customer_app/SWEMS/build_out/bl602_std/libbl602_std.a(bl602_hbn.o)
HBN_GPIO_INT_Enable                               /home/parag/bl_iot_sdk/customer_app/SWEMS/build_out/bl602_std/libbl602_std.a(bl602_hbn.o)
HBN_Get_BOR_OUT_State                             /home/parag/bl_iot_sdk/customer_app/SWEMS/build_out/bl602_std/libbl602_std.a(bl602_hbn.o)
HBN_Get_INT_State                                 /home/parag/bl_iot_sdk/customer_app/SWEMS/build_out/bl602_std/libbl602_std.a(bl602_hbn.o)
HBN_Get_PIR_Interval                              /home/parag/bl_iot_sdk/customer_app/SWEMS/build_out/bl602_std/libbl602_std.a(bl602_hbn.o)
HBN_Get_PIR_Threshold                             /home/parag/bl_iot_sdk/customer_app/SWEMS/build_out/bl602_std/libbl602_std.a(bl602_hbn.o)
HBN_Get_Pin_Wakeup_Mode                           /home/parag/bl_iot_sdk/customer_app/SWEMS/build_out/bl602_std/libbl602_std.a(bl602_hbn.o)
HBN_Get_RTC_Timer_Val                             /home/parag/bl_iot_sdk/customer_app/SWEMS/build_out/bl602_std/libbl602_std.a(bl602_hbn.o)
                                                  /home/parag/bl_iot_sdk/customer_app/SWEMS/build_out/hal_drv/libhal_drv.a(bl_rtc.o)
HBN_Get_Status_Flag                               /home/parag/bl_iot_sdk/customer_app/SWEMS/build_out/bl602_std/libbl602_std.a(bl602_hbn.o)
HBN_Get_Wakeup_Addr                               /home/parag/bl_iot_sdk/customer_app/SWEMS/build_out/bl602_std/libbl602_std.a(bl602_hbn.o)
HBN_Hw_Pu_Pd_Cfg                                  /home/parag/bl_iot_sdk/customer_app/SWEMS/build_out/bl602_std/libbl602_std.a(bl602_romapi.o)
                                                  /home/parag/bl_iot_sdk/customer_app/SWEMS/build_out/bl602_std/libbl602_std.a(bl602_hbn.o)
HBN_Mode_Enter                                    /home/parag/bl_iot_sdk/customer_app/SWEMS/build_out/bl602_std/libbl602_std.a(bl602_romapi.o)
                                                  /home/parag/bl_iot_sdk/customer_app/SWEMS/build_out/bl602_std/libbl602_std.a(bl602_hbn.o)
HBN_Out0_Callback_Install                         /home/parag/bl_iot_sdk/customer_app/SWEMS/build_out/bl602_std/libbl602_std.a(bl602_hbn.o)
HBN_Out1_Callback_Install                         /home/parag/bl_iot_sdk/customer_app/SWEMS/build_out/bl602_std/libbl602_std.a(bl602_hbn.o)
HBN_PIR_Disable                                   /home/parag/bl_iot_sdk/customer_app/SWEMS/build_out/bl602_std/libbl602_std.a(bl602_hbn.o)
HBN_PIR_Enable                                    /home/parag/bl_iot_sdk/customer_app/SWEMS/build_out/bl602_std/libbl602_std.a(bl602_hbn.o)
HBN_PIR_HPF_Sel                                   /home/parag/bl_iot_sdk/customer_app/SWEMS/build_out/bl602_std/libbl602_std.a(bl602_hbn.o)
HBN_PIR_INT_Config                                /home/parag/bl_iot_sdk/customer_app/SWEMS/build_out/bl602_std/libbl602_std.a(bl602_hbn.o)
HBN_PIR_LPF_Sel                                   /home/parag/bl_iot_sdk/customer_app/SWEMS/build_out/bl602_std/libbl602_std.a(bl602_hbn.o)
HBN_Pin_WakeUp_Mask                               /home/parag/bl_iot_sdk/customer_app/SWEMS/build_out/bl602_std/libbl602_std.a(bl602_romapi.o)
                                                  /home/parag/bl_iot_sdk/customer_app/SWEMS/build_out/bl602_std/libbl602_std.a(bl602_hbn.o)
HBN_Power_Down_Flash                              /home/parag/bl_iot_sdk/customer_app/SWEMS/build_out/bl602_std/libbl602_std.a(bl602_romapi.o)
                                                  /home/parag/bl_iot_sdk/customer_app/SWEMS/build_out/bl602_std/libbl602_std.a(bl602_hbn.o)
HBN_Power_Off_RC32K                               /home/parag/bl_iot_sdk/customer_app/SWEMS/build_out/bl602_std/libbl602_std.a(bl602_romapi.o)
                                                  /home/parag/bl_iot_sdk/customer_app/SWEMS/build_out/bl602_std/libbl602_std.a(bl602_hbn.o)
HBN_Power_Off_Xtal_32K                            /home/parag/bl_iot_sdk/customer_app/SWEMS/build_out/bl602_std/libbl602_std.a(bl602_romapi.o)
                                                  /home/parag/bl_iot_sdk/customer_app/SWEMS/build_out/bl602_std/libbl602_std.a(bl602_hbn.o)
HBN_Power_On_RC32K                                /home/parag/bl_iot_sdk/customer_app/SWEMS/build_out/bl602_std/libbl602_std.a(bl602_romapi.o)
                                                  /home/parag/bl_iot_sdk/customer_app/SWEMS/build_out/bl602_std/libbl602_std.a(bl602_hbn.o)
HBN_Power_On_Xtal_32K                             /home/parag/bl_iot_sdk/customer_app/SWEMS/build_out/bl602_std/libbl602_std.a(bl602_romapi.o)
                                                  /home/parag/bl_iot_sdk/customer_app/SWEMS/build_out/bl602_std/libbl602_std.a(bl602_hbn.o)
HBN_Reset                                         /home/parag/bl_iot_sdk/customer_app/SWEMS/build_out/bl602_std/libbl602_std.a(bl602_romapi.o)
                                                  /home/parag/bl_iot_sdk/customer_app/SWEMS/build_out/bl602_std/libbl602_std.a(bl602_hbn.o)
HBN_Set_BOR_Cfg                                   /home/parag/bl_iot_sdk/customer_app/SWEMS/build_out/bl602_std/libbl602_std.a(bl602_hbn.o)
HBN_Set_BOR_Config                                /home/parag/bl_iot_sdk/customer_app/SWEMS/build_out/bl602_std/libbl602_std.a(bl602_hbn.o)
HBN_Set_Embedded_Flash_Pullup                     /home/parag/bl_iot_sdk/customer_app/SWEMS/build_out/bl602_std/libbl602_std.a(bl602_romapi.o)
                                                  /home/parag/bl_iot_sdk/customer_app/SWEMS/build_out/bl602_std/libbl602_std.a(bl602_hbn.o)
HBN_Set_HRAM_Ret                                  /home/parag/bl_iot_sdk/customer_app/SWEMS/build_out/bl602_std/libbl602_std.a(bl602_hbn.o)
HBN_Set_HRAM_slp                                  /home/parag/bl_iot_sdk/customer_app/SWEMS/build_out/bl602_std/libbl602_std.a(bl602_hbn.o)
HBN_Set_Ldo11_All_Vout                            /home/parag/bl_iot_sdk/customer_app/SWEMS/build_out/bl602_std/libbl602_std.a(bl602_hbn.o)
HBN_Set_Ldo11_Aon_Vout                            /home/parag/bl_iot_sdk/customer_app/SWEMS/build_out/bl602_std/libbl602_std.a(bl602_romapi.o)
                                                  /home/parag/bl_iot_sdk/customer_app/SWEMS/build_out/bl602_std/libbl602_std.a(bl602_hbn.o)
HBN_Set_Ldo11_Rt_Vout                             /home/parag/bl_iot_sdk/customer_app/SWEMS/build_out/bl602_std/libbl602_std.a(bl602_romapi.o)
                                                  /home/parag/bl_iot_sdk/customer_app/SWEMS/build_out/bl602_std/libbl602_std.a(bl602_hbn.o)
HBN_Set_Ldo11_Soc_Vout                            /home/parag/bl_iot_sdk/customer_app/SWEMS/build_out/bl602_std/libbl602_std.a(bl602_romapi.o)
                                                  /home/parag/bl_iot_sdk/customer_app/SWEMS/build_out/bl602_std/libbl602_std.a(bl602_hbn.o)
HBN_Set_PIR_Interval                              /home/parag/bl_iot_sdk/customer_app/SWEMS/build_out/bl602_std/libbl602_std.a(bl602_hbn.o)
HBN_Set_PIR_Threshold                             /home/parag/bl_iot_sdk/customer_app/SWEMS/build_out/bl602_std/libbl602_std.a(bl602_hbn.o)
HBN_Set_ROOT_CLK_Sel                              /home/parag/bl_iot_sdk/customer_app/SWEMS/build_out/bl602_std/libbl602_std.a(bl602_romapi.o)
                                                  /home/parag/bl_iot_sdk/customer_app/SWEMS/build_out/bl602_std/libbl602_std.a(bl602_hbn.o)
                                                  /home/parag/bl_iot_sdk/customer_app/SWEMS/build_out/bl602_std/libbl602_std.a(bl602_glb.o)
HBN_Set_RTC_Timer                                 /home/parag/bl_iot_sdk/customer_app/SWEMS/build_out/bl602_std/libbl602_std.a(bl602_hbn.o)
HBN_Set_Status_Flag                               /home/parag/bl_iot_sdk/customer_app/SWEMS/build_out/bl602_std/libbl602_std.a(bl602_hbn.o)
HBN_Set_UART_CLK_Sel                              /home/parag/bl_iot_sdk/customer_app/SWEMS/build_out/bl602_std/libbl602_std.a(bl602_hbn.o)
                                                  /home/parag/bl_iot_sdk/customer_app/SWEMS/build_out/bl602_std/libbl602_std.a(bl602_glb.o)
HBN_Set_Wakeup_Addr                               /home/parag/bl_iot_sdk/customer_app/SWEMS/build_out/bl602_std/libbl602_std.a(bl602_hbn.o)
HBN_Set_XCLK_CLK_Sel                              /home/parag/bl_iot_sdk/customer_app/SWEMS/build_out/bl602_std/libbl602_std.a(bl602_hbn.o)
HBN_Trim_RC32K                                    /home/parag/bl_iot_sdk/customer_app/SWEMS/build_out/bl602_std/libbl602_std.a(bl602_romapi.o)
                                                  /home/parag/bl_iot_sdk/customer_app/SWEMS/build_out/bl602_std/libbl602_std.a(bl602_hbn.o)
L1C_BMX_Addr_Monitor_Disable                      /home/parag/bl_iot_sdk/customer_app/SWEMS/build_out/bl602_std/libbl602_std.a(bl602_l1c.o)
L1C_BMX_Addr_Monitor_Enable                       /home/parag/bl_iot_sdk/customer_app/SWEMS/build_out/bl602_std/libbl602_std.a(bl602_l1c.o)
L1C_BMX_BusErrResponse_Disable                    /home/parag/bl_iot_sdk/customer_app/SWEMS/build_out/bl602_std/libbl602_std.a(bl602_l1c.o)
L1C_BMX_BusErrResponse_Enable                     /home/parag/bl_iot_sdk/customer_app/SWEMS/build_out/bl602_std/libbl602_std.a(bl602_l1c.o)
L1C_BMX_ERR_INT_Callback_Install                  /home/parag/bl_iot_sdk/customer_app/SWEMS/build_out/bl602_std/libbl602_std.a(bl602_l1c.o)
L1C_BMX_Get_Err_Addr                              /home/parag/bl_iot_sdk/customer_app/SWEMS/build_out/bl602_std/libbl602_std.a(bl602_l1c.o)
L1C_BMX_Get_Status                                /home/parag/bl_iot_sdk/customer_app/SWEMS/build_out/bl602_std/libbl602_std.a(bl602_l1c.o)
L1C_BMX_Init                                      /home/parag/bl_iot_sdk/customer_app/SWEMS/build_out/bl602_std/libbl602_std.a(bl602_l1c.o)
L1C_BMX_TIMEOUT_INT_Callback_Install              /home/parag/bl_iot_sdk/customer_app/SWEMS/build_out/bl602_std/libbl602_std.a(bl602_l1c.o)
L1C_IROM_2T_Access_Set                            /home/parag/bl_iot_sdk/customer_app/SWEMS/build_out/bl602_std/libbl602_std.a(bl602_romapi.o)
                                                  /home/parag/bl_iot_sdk/customer_app/SWEMS/build_out/bl602_std/libbl602_std.a(bl602_l1c.o)
                                                  /home/parag/bl_iot_sdk/customer_app/SWEMS/build_out/bl602_std/libbl602_std.a(bl602_glb.o)
L1C_Set_Way_Disable                               /home/parag/bl_iot_sdk/customer_app/SWEMS/build_out/bl602_std/libbl602_std.a(bl602_romapi.o)
                                                  /home/parag/bl_iot_sdk/customer_app/SWEMS/build_out/bl602_std/libbl602_std.a(bl602_l1c.o)
L1C_Set_Wrap                                      /home/parag/bl_iot_sdk/customer_app/SWEMS/build_out/bl602_std/libbl602_std.a(bl602_romapi.o)
                                                  /home/parag/bl_iot_sdk/customer_app/SWEMS/build_out/bl602_std/libbl602_std.a(bl602_l1c.o)
PDS_Default_Level_Config                          /home/parag/bl_iot_sdk/customer_app/SWEMS/build_out/bl602_std/libbl602_std.a(bl602_romapi.o)
                                                  /home/parag/bl_iot_sdk/customer_app/SWEMS/build_out/bl602_std/libbl602_std.a(bl602_pds.o)
PDS_Disable_PLL_All_Clks                          /home/parag/bl_iot_sdk/customer_app/SWEMS/build_out/bl602_std/libbl602_std.a(bl602_romapi.o)
                                                  /home/parag/bl_iot_sdk/customer_app/SWEMS/build_out/bl602_std/libbl602_std.a(bl602_pds.o)
PDS_Disable_PLL_Clk                               /home/parag/bl_iot_sdk/customer_app/SWEMS/build_out/bl602_std/libbl602_std.a(bl602_romapi.o)
                                                  /home/parag/bl_iot_sdk/customer_app/SWEMS/build_out/bl602_std/libbl602_std.a(bl602_pds.o)
PDS_Enable                                        /home/parag/bl_iot_sdk/customer_app/SWEMS/build_out/bl602_std/libbl602_std.a(bl602_pds.o)
PDS_Enable_PLL_All_Clks                           /home/parag/bl_iot_sdk/customer_app/SWEMS/build_out/bl602_std/libbl602_std.a(bl602_romapi.o)
                                                  /home/parag/bl_iot_sdk/customer_app/SWEMS/build_out/bl602_std/libbl602_std.a(bl602_pds.o)
                                                  /home/parag/bl_iot_sdk/customer_app/SWEMS/build_out/bl602_std/libbl602_std.a(bl602_glb.o)
PDS_Enable_PLL_Clk                                /home/parag/bl_iot_sdk/customer_app/SWEMS/build_out/bl602_std/libbl602_std.a(bl602_romapi.o)
                                                  /home/parag/bl_iot_sdk/customer_app/SWEMS/build_out/bl602_std/libbl602_std.a(bl602_pds.o)
                                                  /home/parag/bl_iot_sdk/customer_app/SWEMS/build_out/bl602_std/libbl602_std.a(bl602_glb.o)
PDS_Force_Config                                  /home/parag/bl_iot_sdk/customer_app/SWEMS/build_out/bl602_std/libbl602_std.a(bl602_romapi.o)
                                                  /home/parag/bl_iot_sdk/customer_app/SWEMS/build_out/bl602_std/libbl602_std.a(bl602_pds.o)
PDS_Get_IntStatus                                 /home/parag/bl_iot_sdk/customer_app/SWEMS/build_out/bl602_std/libbl602_std.a(bl602_pds.o)
PDS_Get_PdsPllStstus                              /home/parag/bl_iot_sdk/customer_app/SWEMS/build_out/bl602_std/libbl602_std.a(bl602_pds.o)
PDS_Get_PdsRfStstus                               /home/parag/bl_iot_sdk/customer_app/SWEMS/build_out/bl602_std/libbl602_std.a(bl602_pds.o)
PDS_Get_PdsStstus                                 /home/parag/bl_iot_sdk/customer_app/SWEMS/build_out/bl602_std/libbl602_std.a(bl602_pds.o)
PDS_IntClear                                      /home/parag/bl_iot_sdk/customer_app/SWEMS/build_out/bl602_std/libbl602_std.a(bl602_pds.o)
PDS_IntMask                                       /home/parag/bl_iot_sdk/customer_app/SWEMS/build_out/bl602_std/libbl602_std.a(bl602_pds.o)
PDS_Int_Callback_Install                          /home/parag/bl_iot_sdk/customer_app/SWEMS/build_out/bl602_std/libbl602_std.a(bl602_pds.o)
PDS_Power_Off_PLL                                 /home/parag/bl_iot_sdk/customer_app/SWEMS/build_out/bl602_std/libbl602_std.a(bl602_romapi.o)
                                                  /home/parag/bl_iot_sdk/customer_app/SWEMS/build_out/bl602_std/libbl602_std.a(bl602_pds.o)
PDS_Power_On_PLL                                  /home/parag/bl_iot_sdk/customer_app/SWEMS/build_out/bl602_std/libbl602_std.a(bl602_romapi.o)
                                                  /home/parag/bl_iot_sdk/customer_app/SWEMS/build_out/bl602_std/libbl602_std.a(bl602_pds.o)
                                                  /home/parag/bl_iot_sdk/customer_app/SWEMS/build_out/bl602_std/libbl602_std.a(bl602_glb.o)
PDS_RAM_Config                                    /home/parag/bl_iot_sdk/customer_app/SWEMS/build_out/bl602_std/libbl602_std.a(bl602_romapi.o)
                                                  /home/parag/bl_iot_sdk/customer_app/SWEMS/build_out/bl602_std/libbl602_std.a(bl602_pds.o)
PDS_Reset                                         /home/parag/bl_iot_sdk/customer_app/SWEMS/build_out/bl602_std/libbl602_std.a(bl602_romapi.o)
                                                  /home/parag/bl_iot_sdk/customer_app/SWEMS/build_out/bl602_std/libbl602_std.a(bl602_pds.o)
PDS_Select_RC32M_As_PLL_Ref                       /home/parag/bl_iot_sdk/customer_app/SWEMS/build_out/bl602_std/libbl602_std.a(bl602_romapi.o)
                                                  /home/parag/bl_iot_sdk/customer_app/SWEMS/build_out/bl602_std/libbl602_std.a(bl602_pds.o)
PDS_Select_XTAL_As_PLL_Ref                        /home/parag/bl_iot_sdk/customer_app/SWEMS/build_out/bl602_std/libbl602_std.a(bl602_romapi.o)
                                                  /home/parag/bl_iot_sdk/customer_app/SWEMS/build_out/bl602_std/libbl602_std.a(bl602_pds.o)
PDS_Trim_RC32M                                    /home/parag/bl_iot_sdk/customer_app/SWEMS/build_out/bl602_std/libbl602_std.a(bl602_romapi.o)
                                                  /home/parag/bl_iot_sdk/customer_app/SWEMS/build_out/bl602_std/libbl602_std.a(bl602_pds.o)
PtTable_Get_Active_Entries                        /home/parag/bl_iot_sdk/customer_app/SWEMS/build_out/hal_drv/libhal_drv.a(bl_boot2.o)
                                                  /home/parag/bl_iot_sdk/customer_app/SWEMS/build_out/hal_drv/libhal_drv.a(hal_boot2.o)
PtTable_Set_Flash_Operation                       /home/parag/bl_iot_sdk/customer_app/SWEMS/build_out/hal_drv/libhal_drv.a(hal_boot2.o)
PtTable_Update_Entry                              /home/parag/bl_iot_sdk/customer_app/SWEMS/build_out/hal_drv/libhal_drv.a(bl_boot2.o)
                                                  /home/parag/bl_iot_sdk/customer_app/SWEMS/build_out/hal_drv/libhal_drv.a(hal_boot2.o)
SEC_Eng_Turn_Off_Sec_Ring                         /home/parag/bl_iot_sdk/customer_app/SWEMS/build_out/bl602_std/libbl602_std.a(bl602_romapi.o)
SEC_Eng_Turn_On_Sec_Ring                          /home/parag/bl_iot_sdk/customer_app/SWEMS/build_out/bl602_std/libbl602_std.a(bl602_romapi.o)
SF_Cfg_Deinit_Ext_Flash_Gpio                      /home/parag/bl_iot_sdk/customer_app/SWEMS/build_out/bl602_std/libbl602_std.a(bl602_romapi.o)
SF_Cfg_Flash_Identify                             /home/parag/bl_iot_sdk/customer_app/SWEMS/build_out/bl602_std/libbl602_std.a(bl602_romapi.o)
SF_Cfg_Get_Flash_Cfg_Need_Lock                    /home/parag/bl_iot_sdk/customer_app/SWEMS/build_out/bl602_std/libbl602_std.a(bl602_romapi.o)
SF_Cfg_Init_Ext_Flash_Gpio                        /home/parag/bl_iot_sdk/customer_app/SWEMS/build_out/bl602_std/libbl602_std.a(bl602_romapi.o)
SF_Cfg_Init_Flash_Gpio                            /home/parag/bl_iot_sdk/customer_app/SWEMS/build_out/bl602_std/libbl602_std.a(bl602_romapi.o)
SF_Cfg_Init_Internal_Flash_Gpio                   /home/parag/bl_iot_sdk/customer_app/SWEMS/build_out/bl602_std/libbl602_std.a(bl602_romapi.o)
SF_Cfg_Restore_GPIO17_Fun                         /home/parag/bl_iot_sdk/customer_app/SWEMS/build_out/bl602_std/libbl602_std.a(bl602_romapi.o)
SF_Ctrl_AES_Disable                               /home/parag/bl_iot_sdk/customer_app/SWEMS/build_out/bl602_std/libbl602_std.a(bl602_romapi.o)
SF_Ctrl_AES_Enable                                /home/parag/bl_iot_sdk/customer_app/SWEMS/build_out/bl602_std/libbl602_std.a(bl602_romapi.o)
SF_Ctrl_AES_Enable_BE                             /home/parag/bl_iot_sdk/customer_app/SWEMS/build_out/bl602_std/libbl602_std.a(bl602_romapi.o)
SF_Ctrl_AES_Enable_LE                             /home/parag/bl_iot_sdk/customer_app/SWEMS/build_out/bl602_std/libbl602_std.a(bl602_romapi.o)
SF_Ctrl_AES_Set_IV                                /home/parag/bl_iot_sdk/customer_app/SWEMS/build_out/bl602_std/libbl602_std.a(bl602_romapi.o)
SF_Ctrl_AES_Set_IV_BE                             /home/parag/bl_iot_sdk/customer_app/SWEMS/build_out/bl602_std/libbl602_std.a(bl602_romapi.o)
SF_Ctrl_AES_Set_Key                               /home/parag/bl_iot_sdk/customer_app/SWEMS/build_out/bl602_std/libbl602_std.a(bl602_romapi.o)
SF_Ctrl_AES_Set_Key_BE                            /home/parag/bl_iot_sdk/customer_app/SWEMS/build_out/bl602_std/libbl602_std.a(bl602_romapi.o)
SF_Ctrl_AES_Set_Region                            /home/parag/bl_iot_sdk/customer_app/SWEMS/build_out/bl602_std/libbl602_std.a(bl602_romapi.o)
SF_Ctrl_Disable                                   /home/parag/bl_iot_sdk/customer_app/SWEMS/build_out/bl602_std/libbl602_std.a(bl602_romapi.o)
SF_Ctrl_Enable                                    /home/parag/bl_iot_sdk/customer_app/SWEMS/build_out/bl602_std/libbl602_std.a(bl602_romapi.o)
                                                  /home/parag/bl_iot_sdk/customer_app/SWEMS/build_out/bl602_std/libbl602_std.a(bl602_glb.o)
SF_Ctrl_GetBusyState                              /home/parag/bl_iot_sdk/customer_app/SWEMS/build_out/bl602_std/libbl602_std.a(bl602_romapi.o)
SF_Ctrl_Get_Clock_Delay                           /home/parag/bl_iot_sdk/customer_app/SWEMS/build_out/bl602_std/libbl602_std.a(bl602_romapi.o)
SF_Ctrl_Get_Flash_Image_Offset                    /home/parag/bl_iot_sdk/customer_app/SWEMS/build_out/bl602_std/libbl602_std.a(bl602_romapi.o)
SF_Ctrl_Icache2_Set                               /home/parag/bl_iot_sdk/customer_app/SWEMS/build_out/bl602_std/libbl602_std.a(bl602_romapi.o)
SF_Ctrl_Icache_Set                                /home/parag/bl_iot_sdk/customer_app/SWEMS/build_out/bl602_std/libbl602_std.a(bl602_romapi.o)
SF_Ctrl_Is_AES_Enable                             /home/parag/bl_iot_sdk/customer_app/SWEMS/build_out/bl602_std/libbl602_std.a(bl602_romapi.o)
SF_Ctrl_Select_Clock                              /home/parag/bl_iot_sdk/customer_app/SWEMS/build_out/bl602_std/libbl602_std.a(bl602_romapi.o)
SF_Ctrl_Select_Pad                                /home/parag/bl_iot_sdk/customer_app/SWEMS/build_out/bl602_std/libbl602_std.a(bl602_romapi.o)
SF_Ctrl_SendCmd                                   /home/parag/bl_iot_sdk/customer_app/SWEMS/build_out/bl602_std/libbl602_std.a(bl602_romapi.o)
SF_Ctrl_Set_Clock_Delay                           /home/parag/bl_iot_sdk/customer_app/SWEMS/build_out/bl602_std/libbl602_std.a(bl602_romapi.o)
SF_Ctrl_Set_Flash_Image_Offset                    /home/parag/bl_iot_sdk/customer_app/SWEMS/build_out/bl602_std/libbl602_std.a(bl602_romapi.o)
SF_Ctrl_Set_Owner                                 /home/parag/bl_iot_sdk/customer_app/SWEMS/build_out/bl602_std/libbl602_std.a(bl602_romapi.o)
                                                  /home/parag/bl_iot_sdk/customer_app/SWEMS/build_out/bl602_std/libbl602_std.a(bl602_hbn.o)
SFlash_Blk32_Erase                                /home/parag/bl_iot_sdk/customer_app/SWEMS/build_out/bl602_std/libbl602_std.a(bl602_romapi.o)
SFlash_Blk64_Erase                                /home/parag/bl_iot_sdk/customer_app/SWEMS/build_out/bl602_std/libbl602_std.a(bl602_romapi.o)
SFlash_Busy                                       /home/parag/bl_iot_sdk/customer_app/SWEMS/build_out/bl602_std/libbl602_std.a(bl602_romapi.o)
SFlash_Cache_Enable_Set                           /home/parag/bl_iot_sdk/customer_app/SWEMS/build_out/bl602_std/libbl602_std.a(bl602_romapi.o)
SFlash_Cache_Flush                                /home/parag/bl_iot_sdk/customer_app/SWEMS/build_out/bl602_std/libbl602_std.a(bl602_romapi.o)
                                                  /home/parag/bl_iot_sdk/customer_app/SWEMS/build_out/bl602_std/libbl602_std.a(bl602_hbn.o)
SFlash_Cache_Hit_Count_Get                        /home/parag/bl_iot_sdk/customer_app/SWEMS/build_out/bl602_std/libbl602_std.a(bl602_romapi.o)
SFlash_Cache_Miss_Count_Get                       /home/parag/bl_iot_sdk/customer_app/SWEMS/build_out/bl602_std/libbl602_std.a(bl602_romapi.o)
SFlash_Cache_Read_Disable                         /home/parag/bl_iot_sdk/customer_app/SWEMS/build_out/bl602_std/libbl602_std.a(bl602_romapi.o)
SFlash_Cache_Read_Enable                          /home/parag/bl_iot_sdk/customer_app/SWEMS/build_out/bl602_std/libbl602_std.a(bl602_romapi.o)
SFlash_Chip_Erase                                 /home/parag/bl_iot_sdk/customer_app/SWEMS/build_out/bl602_std/libbl602_std.a(bl602_romapi.o)
SFlash_DisableBurstWrap                           /home/parag/bl_iot_sdk/customer_app/SWEMS/build_out/bl602_std/libbl602_std.a(bl602_romapi.o)
SFlash_Erase                                      /home/parag/bl_iot_sdk/customer_app/SWEMS/build_out/bl602_std/libbl602_std.a(bl602_romapi.o)
SFlash_GetDeviceId                                /home/parag/bl_iot_sdk/customer_app/SWEMS/build_out/bl602_std/libbl602_std.a(bl602_romapi.o)
SFlash_GetJedecId                                 /home/parag/bl_iot_sdk/customer_app/SWEMS/build_out/bl602_std/libbl602_std.a(bl602_romapi.o)
SFlash_GetUniqueId                                /home/parag/bl_iot_sdk/customer_app/SWEMS/build_out/bl602_std/libbl602_std.a(bl602_romapi.o)
SFlash_IDbus_Read_Enable                          /home/parag/bl_iot_sdk/customer_app/SWEMS/build_out/bl602_std/libbl602_std.a(bl602_romapi.o)
SFlash_Init                                       /home/parag/bl_iot_sdk/customer_app/SWEMS/build_out/bl602_std/libbl602_std.a(bl602_romapi.o)
SFlash_Powerdown                                  /home/parag/bl_iot_sdk/customer_app/SWEMS/build_out/bl602_std/libbl602_std.a(bl602_romapi.o)
                                                  /home/parag/bl_iot_sdk/customer_app/SWEMS/build_out/bl602_std/libbl602_std.a(bl602_hbn.o)
SFlash_Program                                    /home/parag/bl_iot_sdk/customer_app/SWEMS/build_out/bl602_std/libbl602_std.a(bl602_romapi.o)
SFlash_Qspi_Enable                                /home/parag/bl_iot_sdk/customer_app/SWEMS/build_out/bl602_std/libbl602_std.a(bl602_romapi.o)
SFlash_Read                                       /home/parag/bl_iot_sdk/customer_app/SWEMS/build_out/bl602_std/libbl602_std.a(bl602_romapi.o)
SFlash_Read_Reg                                   /home/parag/bl_iot_sdk/customer_app/SWEMS/build_out/bl602_std/libbl602_std.a(bl602_romapi.o)
SFlash_Read_Reg_With_Cmd                          /home/parag/bl_iot_sdk/customer_app/SWEMS/build_out/bl602_std/libbl602_std.a(bl602_romapi.o)
SFlash_Releae_Powerdown                           /home/parag/bl_iot_sdk/customer_app/SWEMS/build_out/bl602_std/libbl602_std.a(bl602_romapi.o)
SFlash_Reset_Continue_Read                        /home/parag/bl_iot_sdk/customer_app/SWEMS/build_out/bl602_std/libbl602_std.a(bl602_romapi.o)
                                                  /home/parag/bl_iot_sdk/customer_app/SWEMS/build_out/bl602_std/libbl602_std.a(bl602_hbn.o)
SFlash_Sector_Erase                               /home/parag/bl_iot_sdk/customer_app/SWEMS/build_out/bl602_std/libbl602_std.a(bl602_romapi.o)
SFlash_SetBurstWrap                               /home/parag/bl_iot_sdk/customer_app/SWEMS/build_out/bl602_std/libbl602_std.a(bl602_romapi.o)
SFlash_SetSPIMode                                 /home/parag/bl_iot_sdk/customer_app/SWEMS/build_out/bl602_std/libbl602_std.a(bl602_romapi.o)
SFlash_Set_IDbus_Cfg                              /home/parag/bl_iot_sdk/customer_app/SWEMS/build_out/bl602_std/libbl602_std.a(bl602_romapi.o)
SFlash_Software_Reset                             /home/parag/bl_iot_sdk/customer_app/SWEMS/build_out/bl602_std/libbl602_std.a(bl602_romapi.o)
SFlash_Volatile_Reg_Write_Enable                  /home/parag/bl_iot_sdk/customer_app/SWEMS/build_out/bl602_std/libbl602_std.a(bl602_romapi.o)
SFlash_Write_Enable                               /home/parag/bl_iot_sdk/customer_app/SWEMS/build_out/bl602_std/libbl602_std.a(bl602_romapi.o)
SFlash_Write_Reg                                  /home/parag/bl_iot_sdk/customer_app/SWEMS/build_out/bl602_std/libbl602_std.a(bl602_romapi.o)
SFlash_Write_Reg_With_Cmd                         /home/parag/bl_iot_sdk/customer_app/SWEMS/build_out/bl602_std/libbl602_std.a(bl602_romapi.o)
System_Core_Clock_Update_From_RC32M               /home/parag/bl_iot_sdk/customer_app/SWEMS/build_out/bl602_std/libbl602_std.a(bl602_romapi.o)
                                                  /home/parag/bl_iot_sdk/customer_app/SWEMS/build_out/bl602_std/libbl602_std.a(bl602_glb.o)
TrapNetCounter                                    /home/parag/bl_iot_sdk/customer_app/SWEMS/build_out/freertos_riscv_ram/libfreertos_riscv_ram.a(port.o)
UART0_IRQHandler                                  /home/parag/bl_iot_sdk/customer_app/SWEMS/build_out/hal_drv/libhal_drv.a(bl_uart.o)
UART1_IRQHandler                                  /home/parag/bl_iot_sdk/customer_app/SWEMS/build_out/hal_drv/libhal_drv.a(bl_uart.o)
UART_AutoBaudDetection                            /home/parag/bl_iot_sdk/customer_app/SWEMS/build_out/bl602_std/libbl602_std.a(bl602_uart.o)
UART_ClrRtsValue                                  /home/parag/bl_iot_sdk/customer_app/SWEMS/build_out/bl602_std/libbl602_std.a(bl602_uart.o)
UART_DeInit                                       /home/parag/bl_iot_sdk/customer_app/SWEMS/build_out/bl602_std/libbl602_std.a(bl602_uart.o)
UART_Disable                                      /home/parag/bl_iot_sdk/customer_app/SWEMS/build_out/bl602_std/libbl602_std.a(bl602_uart.o)
                                                  /home/parag/bl_iot_sdk/customer_app/SWEMS/build_out/hal_drv/libhal_drv.a(bl_uart.o)
UART_Enable                                       /home/parag/bl_iot_sdk/customer_app/SWEMS/build_out/bl602_std/libbl602_std.a(bl602_uart.o)
                                                  /home/parag/bl_iot_sdk/customer_app/SWEMS/build_out/hal_drv/libhal_drv.a(bl_uart.o)
UART_FifoConfig                                   /home/parag/bl_iot_sdk/customer_app/SWEMS/build_out/bl602_std/libbl602_std.a(bl602_uart.o)
                                                  /home/parag/bl_iot_sdk/customer_app/SWEMS/build_out/hal_drv/libhal_drv.a(bl_uart.o)
UART_GetAutoBaudCount                             /home/parag/bl_iot_sdk/customer_app/SWEMS/build_out/bl602_std/libbl602_std.a(bl602_uart.o)
UART_GetIntStatus                                 /home/parag/bl_iot_sdk/customer_app/SWEMS/build_out/bl602_std/libbl602_std.a(bl602_uart.o)
UART_GetOverflowStatus                            /home/parag/bl_iot_sdk/customer_app/SWEMS/build_out/bl602_std/libbl602_std.a(bl602_uart.o)
UART_GetRxBusBusyStatus                           /home/parag/bl_iot_sdk/customer_app/SWEMS/build_out/bl602_std/libbl602_std.a(bl602_uart.o)
UART_GetRxFifoCount                               /home/parag/bl_iot_sdk/customer_app/SWEMS/build_out/bl602_std/libbl602_std.a(bl602_uart.o)
                                                  /home/parag/bl_iot_sdk/customer_app/SWEMS/build_out/hal_drv/libhal_drv.a(bl_uart.o)
UART_GetTxBusBusyStatus                           /home/parag/bl_iot_sdk/customer_app/SWEMS/build_out/bl602_std/libbl602_std.a(bl602_uart.o)
UART_GetTxFifoCount                               /home/parag/bl_iot_sdk/customer_app/SWEMS/build_out/bl602_std/libbl602_std.a(bl602_uart.o)
                                                  /home/parag/bl_iot_sdk/customer_app/SWEMS/build_out/hal_drv/libhal_drv.a(bl_uart.o)
UART_Init                                         /home/parag/bl_iot_sdk/customer_app/SWEMS/build_out/bl602_std/libbl602_std.a(bl602_uart.o)
                                                  /home/parag/bl_iot_sdk/customer_app/SWEMS/build_out/hal_drv/libhal_drv.a(bl_uart.o)
UART_IntClear                                     /home/parag/bl_iot_sdk/customer_app/SWEMS/build_out/bl602_std/libbl602_std.a(bl602_uart.o)
UART_IntMask                                      /home/parag/bl_iot_sdk/customer_app/SWEMS/build_out/bl602_std/libbl602_std.a(bl602_uart.o)
                                                  /home/parag/bl_iot_sdk/customer_app/SWEMS/build_out/hal_drv/libhal_drv.a(bl_uart.o)
UART_Int_Callback_Install                         /home/parag/bl_iot_sdk/customer_app/SWEMS/build_out/bl602_std/libbl602_std.a(bl602_uart.o)
UART_IrConfig                                     /home/parag/bl_iot_sdk/customer_app/SWEMS/build_out/bl602_std/libbl602_std.a(bl602_uart.o)
UART_ReceiveData                                  /home/parag/bl_iot_sdk/customer_app/SWEMS/build_out/bl602_std/libbl602_std.a(bl602_uart.o)
UART_RxFifoClear                                  /home/parag/bl_iot_sdk/customer_app/SWEMS/build_out/bl602_std/libbl602_std.a(bl602_uart.o)
UART_SendData                                     /home/parag/bl_iot_sdk/customer_app/SWEMS/build_out/bl602_std/libbl602_std.a(bl602_uart.o)
UART_SendDataBlock                                /home/parag/bl_iot_sdk/customer_app/SWEMS/build_out/bl602_std/libbl602_std.a(bl602_uart.o)
UART_SetBaudrate                                  /home/parag/bl_iot_sdk/customer_app/SWEMS/build_out/bl602_std/libbl602_std.a(bl602_uart.o)
UART_SetDeglitchCount                             /home/parag/bl_iot_sdk/customer_app/SWEMS/build_out/bl602_std/libbl602_std.a(bl602_uart.o)
UART_SetRtsValue                                  /home/parag/bl_iot_sdk/customer_app/SWEMS/build_out/bl602_std/libbl602_std.a(bl602_uart.o)
UART_SetRxDataLength                              /home/parag/bl_iot_sdk/customer_app/SWEMS/build_out/bl602_std/libbl602_std.a(bl602_uart.o)
UART_SetRxTimeoutValue                            /home/parag/bl_iot_sdk/customer_app/SWEMS/build_out/bl602_std/libbl602_std.a(bl602_uart.o)
                                                  /home/parag/bl_iot_sdk/customer_app/SWEMS/build_out/hal_drv/libhal_drv.a(bl_uart.o)
UART_SetTxDataLength                              /home/parag/bl_iot_sdk/customer_app/SWEMS/build_out/bl602_std/libbl602_std.a(bl602_uart.o)
UART_TxFifoClear                                  /home/parag/bl_iot_sdk/customer_app/SWEMS/build_out/bl602_std/libbl602_std.a(bl602_uart.o)
UART_TxFreeRun                                    /home/parag/bl_iot_sdk/customer_app/SWEMS/build_out/bl602_std/libbl602_std.a(bl602_uart.o)
                                                  /home/parag/bl_iot_sdk/customer_app/SWEMS/build_out/hal_drv/libhal_drv.a(bl_uart.o)
Update_SystemCoreClockWith_XTAL                   /home/parag/bl_iot_sdk/customer_app/SWEMS/build_out/bl602_std/libbl602_std.a(bl602_romapi.o)
                                                  /home/parag/bl_iot_sdk/customer_app/SWEMS/build_out/bl602_std/libbl602_std.a(bl602_glb.o)
XIP_SFlash_Erase_Need_Lock                        /home/parag/bl_iot_sdk/customer_app/SWEMS/build_out/bl602_std/libbl602_std.a(bl602_romapi.o)
XIP_SFlash_Erase_With_Lock                        /home/parag/bl_iot_sdk/customer_app/SWEMS/build_out/bl602_std/libbl602_std.a(bl602_romapi.o)
XIP_SFlash_GetDeviceId_Need_Lock                  /home/parag/bl_iot_sdk/customer_app/SWEMS/build_out/bl602_std/libbl602_std.a(bl602_romapi.o)
XIP_SFlash_GetJedecId_Need_Lock                   /home/parag/bl_iot_sdk/customer_app/SWEMS/build_out/bl602_std/libbl602_std.a(bl602_romapi.o)
XIP_SFlash_GetUniqueId_Need_Lock                  /home/parag/bl_iot_sdk/customer_app/SWEMS/build_out/bl602_std/libbl602_std.a(bl602_romapi.o)
XIP_SFlash_Opt_Enter                              /home/parag/bl_iot_sdk/customer_app/SWEMS/build_out/bl602_std/libbl602_std.a(bl602_romapi.o)
XIP_SFlash_Opt_Exit                               /home/parag/bl_iot_sdk/customer_app/SWEMS/build_out/bl602_std/libbl602_std.a(bl602_romapi.o)
XIP_SFlash_Read_Need_Lock                         /home/parag/bl_iot_sdk/customer_app/SWEMS/build_out/bl602_std/libbl602_std.a(bl602_romapi.o)
XIP_SFlash_Read_Via_Cache_Need_Lock               /home/parag/bl_iot_sdk/customer_app/SWEMS/build_out/bl602_std/libbl602_std.a(bl602_romapi.o)
                                                  /home/parag/bl_iot_sdk/customer_app/SWEMS/build_out/bl602_std/libbl602_std.a(bl602_hbn.o)
XIP_SFlash_Read_With_Lock                         /home/parag/bl_iot_sdk/customer_app/SWEMS/build_out/bl602_std/libbl602_std.a(bl602_romapi.o)
XIP_SFlash_State_Restore                          /home/parag/bl_iot_sdk/customer_app/SWEMS/build_out/bl602_std/libbl602_std.a(bl602_romapi.o)
XIP_SFlash_State_Save                             /home/parag/bl_iot_sdk/customer_app/SWEMS/build_out/bl602_std/libbl602_std.a(bl602_romapi.o)
XIP_SFlash_Write_Need_Lock                        /home/parag/bl_iot_sdk/customer_app/SWEMS/build_out/bl602_std/libbl602_std.a(bl602_romapi.o)
XIP_SFlash_Write_With_Lock                        /home/parag/bl_iot_sdk/customer_app/SWEMS/build_out/bl602_std/libbl602_std.a(bl602_romapi.o)
__LD_CONFIG_EM_SEL                                /home/parag/bl_iot_sdk/customer_app/SWEMS/build_out/hal_drv/libhal_drv.a(bl_sys.o)
__adddf3                                          /home/parag/bl_iot_sdk/toolchain/riscv/Linux/bin/../lib/gcc/riscv64-unknown-elf/8.3.0/rv32imf/ilp32f/libgcc.a(adddf3.o)
                                                  /home/parag/bl_iot_sdk/customer_app/SWEMS/build_out/bl602/libbl602.a(debug.o)
__ashldi3                                         /home/parag/bl_iot_sdk/toolchain/riscv/Linux/bin/../lib/gcc/riscv64-unknown-elf/8.3.0/rv32imf/ilp32f/libgcc.a(_ashldi3.o)
                                                  /home/parag/bl_iot_sdk/customer_app/SWEMS/build_out/bl602_std/libbl602_std.a(bl602_ef_ctrl.o)
__boot2_flashCfg_end                              /home/parag/bl_iot_sdk/customer_app/SWEMS/build_out/bl602/libbl602.a(start.o)
__boot2_flashCfg_src                              /home/parag/bl_iot_sdk/customer_app/SWEMS/build_out/hal_drv/libhal_drv.a(hal_boot2.o)
__boot2_flashCfg_start                            /home/parag/bl_iot_sdk/customer_app/SWEMS/build_out/bl602/libbl602.a(start.o)
__boot2_pt_addr_end                               /home/parag/bl_iot_sdk/customer_app/SWEMS/build_out/bl602/libbl602.a(start.o)
__boot2_pt_addr_src                               /home/parag/bl_iot_sdk/customer_app/SWEMS/build_out/bl602/libbl602.a(start.o)
__boot2_pt_addr_start                             /home/parag/bl_iot_sdk/customer_app/SWEMS/build_out/bl602/libbl602.a(start.o)
__bss_end                                         /home/parag/bl_iot_sdk/customer_app/SWEMS/build_out/bl602/libbl602.a(start.o)
__bss_start                                       /home/parag/bl_iot_sdk/customer_app/SWEMS/build_out/bl602/libbl602.a(start.o)
__clz_tab                                         /home/parag/bl_iot_sdk/toolchain/riscv/Linux/bin/../lib/gcc/riscv64-unknown-elf/8.3.0/rv32imf/ilp32f/libgcc.a(_clz.o)
                                                  /home/parag/bl_iot_sdk/toolchain/riscv/Linux/bin/../lib/gcc/riscv64-unknown-elf/8.3.0/rv32imf/ilp32f/libgcc.a(_umoddi3.o)
                                                  /home/parag/bl_iot_sdk/toolchain/riscv/Linux/bin/../lib/gcc/riscv64-unknown-elf/8.3.0/rv32imf/ilp32f/libgcc.a(_udivdi3.o)
                                                  /home/parag/bl_iot_sdk/toolchain/riscv/Linux/bin/../lib/gcc/riscv64-unknown-elf/8.3.0/rv32imf/ilp32f/libgcc.a(_clzsi2.o)
__clzsi2                                          /home/parag/bl_iot_sdk/toolchain/riscv/Linux/bin/../lib/gcc/riscv64-unknown-elf/8.3.0/rv32imf/ilp32f/libgcc.a(_clzsi2.o)
                                                  /home/parag/bl_iot_sdk/toolchain/riscv/Linux/bin/../lib/gcc/riscv64-unknown-elf/8.3.0/rv32imf/ilp32f/libgcc.a(subdf3.o)
                                                  /home/parag/bl_iot_sdk/toolchain/riscv/Linux/bin/../lib/gcc/riscv64-unknown-elf/8.3.0/rv32imf/ilp32f/libgcc.a(muldf3.o)
                                                  /home/parag/bl_iot_sdk/toolchain/riscv/Linux/bin/../lib/gcc/riscv64-unknown-elf/8.3.0/rv32imf/ilp32f/libgcc.a(divdf3.o)
                                                  /home/parag/bl_iot_sdk/toolchain/riscv/Linux/bin/../lib/gcc/riscv64-unknown-elf/8.3.0/rv32imf/ilp32f/libgcc.a(adddf3.o)
                                                  /home/parag/bl_iot_sdk/customer_app/SWEMS/build_out/freertos_riscv_ram/libfreertos_riscv_ram.a(tasks.o)
__divdf3                                          /home/parag/bl_iot_sdk/toolchain/riscv/Linux/bin/../lib/gcc/riscv64-unknown-elf/8.3.0/rv32imf/ilp32f/libgcc.a(divdf3.o)
                                                  /home/parag/bl_iot_sdk/customer_app/SWEMS/build_out/bl602/libbl602.a(debug.o)
__eqdf2                                           /home/parag/bl_iot_sdk/toolchain/riscv/Linux/bin/../lib/gcc/riscv64-unknown-elf/8.3.0/rv32imf/ilp32f/libgcc.a(eqdf2.o)
                                                  /home/parag/bl_iot_sdk/customer_app/SWEMS/build_out/bl602/libbl602.a(debug.o)
__fixdfsi                                         /home/parag/bl_iot_sdk/toolchain/riscv/Linux/bin/../lib/gcc/riscv64-unknown-elf/8.3.0/rv32imf/ilp32f/libgcc.a(fixdfsi.o)
                                                  /home/parag/bl_iot_sdk/customer_app/SWEMS/build_out/bl602/libbl602.a(debug.o)
__freertos_irq_stack_top                          /home/parag/bl_iot_sdk/customer_app/SWEMS/build_out/freertos_riscv_ram/libfreertos_riscv_ram.a(port.o)
__gedf2                                           /home/parag/bl_iot_sdk/toolchain/riscv/Linux/bin/../lib/gcc/riscv64-unknown-elf/8.3.0/rv32imf/ilp32f/libgcc.a(gedf2.o)
__global_pointer$                                 /home/parag/bl_iot_sdk/customer_app/SWEMS/build_out/bl602/libbl602.a(start.o)
__gtdf2                                           /home/parag/bl_iot_sdk/toolchain/riscv/Linux/bin/../lib/gcc/riscv64-unknown-elf/8.3.0/rv32imf/ilp32f/libgcc.a(gedf2.o)
                                                  /home/parag/bl_iot_sdk/customer_app/SWEMS/build_out/bl602/libbl602.a(debug.o)
__init_array_end                                  /home/parag/bl_iot_sdk/customer_app/SWEMS/build_out/bl602/libbl602.a(start.o)
__init_array_start                                /home/parag/bl_iot_sdk/customer_app/SWEMS/build_out/bl602/libbl602.a(start.o)
__ledf2                                           /home/parag/bl_iot_sdk/toolchain/riscv/Linux/bin/../lib/gcc/riscv64-unknown-elf/8.3.0/rv32imf/ilp32f/libgcc.a(ledf2.o)
__lshrdi3                                         /home/parag/bl_iot_sdk/toolchain/riscv/Linux/bin/../lib/gcc/riscv64-unknown-elf/8.3.0/rv32imf/ilp32f/libgcc.a(_lshrdi3.o)
                                                  /home/parag/bl_iot_sdk/customer_app/SWEMS/build_out/bl602_std/libbl602_std.a(bl602_ef_ctrl.o)
__ltdf2                                           /home/parag/bl_iot_sdk/toolchain/riscv/Linux/bin/../lib/gcc/riscv64-unknown-elf/8.3.0/rv32imf/ilp32f/libgcc.a(ledf2.o)
                                                  /home/parag/bl_iot_sdk/customer_app/SWEMS/build_out/bl602/libbl602.a(debug.o)
__muldf3                                          /home/parag/bl_iot_sdk/toolchain/riscv/Linux/bin/../lib/gcc/riscv64-unknown-elf/8.3.0/rv32imf/ilp32f/libgcc.a(muldf3.o)
                                                  /home/parag/bl_iot_sdk/customer_app/SWEMS/build_out/bl602/libbl602.a(debug.o)
__nedf2                                           /home/parag/bl_iot_sdk/toolchain/riscv/Linux/bin/../lib/gcc/riscv64-unknown-elf/8.3.0/rv32imf/ilp32f/libgcc.a(eqdf2.o)
                                                  /home/parag/bl_iot_sdk/customer_app/SWEMS/build_out/bl602/libbl602.a(debug.o)
__preinit_array_end                               /home/parag/bl_iot_sdk/customer_app/SWEMS/build_out/bl602/libbl602.a(start.o)
__preinit_array_start                             /home/parag/bl_iot_sdk/customer_app/SWEMS/build_out/bl602/libbl602.a(start.o)
__subdf3                                          /home/parag/bl_iot_sdk/toolchain/riscv/Linux/bin/../lib/gcc/riscv64-unknown-elf/8.3.0/rv32imf/ilp32f/libgcc.a(subdf3.o)
                                                  /home/parag/bl_iot_sdk/toolchain/riscv/Linux/bin/../lib/gcc/riscv64-unknown-elf/8.3.0/../../../../riscv64-unknown-elf/lib/rv32imf/ilp32f/libm.a(lib_a-s_modf.o)
__udivdi3                                         /home/parag/bl_iot_sdk/toolchain/riscv/Linux/bin/../lib/gcc/riscv64-unknown-elf/8.3.0/rv32imf/ilp32f/libgcc.a(_udivdi3.o)
                                                  /home/parag/bl_iot_sdk/customer_app/SWEMS/build_out/bl602/libbl602.a(debug.o)
__umoddi3                                         /home/parag/bl_iot_sdk/toolchain/riscv/Linux/bin/../lib/gcc/riscv64-unknown-elf/8.3.0/rv32imf/ilp32f/libgcc.a(_umoddi3.o)
                                                  /home/parag/bl_iot_sdk/customer_app/SWEMS/build_out/bl602/libbl602.a(debug.o)
__wifi_bss_end                                    /home/parag/bl_iot_sdk/customer_app/SWEMS/build_out/bl602/libbl602.a(start.o)
__wifi_bss_start                                  /home/parag/bl_iot_sdk/customer_app/SWEMS/build_out/bl602/libbl602.a(start.o)
_data_load                                        /home/parag/bl_iot_sdk/customer_app/SWEMS/build_out/bl602/libbl602.a(start.o)
_data_run                                         /home/parag/bl_iot_sdk/customer_app/SWEMS/build_out/bl602/libbl602.a(start.o)
_data_run_end                                     /home/parag/bl_iot_sdk/customer_app/SWEMS/build_out/bl602/libbl602.a(start.o)
_sp_main                                          /home/parag/bl_iot_sdk/customer_app/SWEMS/build_out/bl602/libbl602.a(start.o)
backtrace_now                                     /home/parag/bl_iot_sdk/customer_app/SWEMS/build_out/freertos_riscv_ram/libfreertos_riscv_ram.a(panic_c.o)
                                                  /home/parag/bl_iot_sdk/customer_app/SWEMS/build_out/hal_drv/libhal_drv.a(bl_irq.o)
backtrace_riscv                                   /home/parag/bl_iot_sdk/customer_app/SWEMS/build_out/freertos_riscv_ram/libfreertos_riscv_ram.a(panic_c.o)
bfl_main                                          /home/parag/bl_iot_sdk/customer_app/SWEMS/build_out/SWEMS/libSWEMS.a(main.o)
                                                  /home/parag/bl_iot_sdk/customer_app/SWEMS/build_out/bl602/libbl602.a(start.o)
bl602_start                                       /home/parag/bl_iot_sdk/customer_app/SWEMS/build_out/bl602/libbl602.a(start.o)
bl_flash_config_update                            /home/parag/bl_iot_sdk/customer_app/SWEMS/build_out/hal_drv/libhal_drv.a(bl_flash.o)
                                                  /home/parag/bl_iot_sdk/customer_app/SWEMS/build_out/hal_drv/libhal_drv.a(hal_boot2.o)
bl_flash_erase                                    /home/parag/bl_iot_sdk/customer_app/SWEMS/build_out/hal_drv/libhal_drv.a(bl_flash.o)
                                                  /home/parag/bl_iot_sdk/customer_app/SWEMS/build_out/hal_drv/libhal_drv.a(bl_boot2.o)
bl_flash_get_flashCfg                             /home/parag/bl_iot_sdk/customer_app/SWEMS/build_out/hal_drv/libhal_drv.a(bl_flash.o)
bl_flash_read                                     /home/parag/bl_iot_sdk/customer_app/SWEMS/build_out/hal_drv/libhal_drv.a(bl_flash.o)
bl_flash_read_byxip                               /home/parag/bl_iot_sdk/customer_app/SWEMS/build_out/hal_drv/libhal_drv.a(bl_flash.o)
bl_flash_write                                    /home/parag/bl_iot_sdk/customer_app/SWEMS/build_out/hal_drv/libhal_drv.a(bl_flash.o)
                                                  /home/parag/bl_iot_sdk/customer_app/SWEMS/build_out/hal_drv/libhal_drv.a(bl_boot2.o)
bl_gpio_enable_input                              /home/parag/bl_iot_sdk/customer_app/SWEMS/build_out/hal_drv/libhal_drv.a(bl_gpio.o)
bl_gpio_enable_output                             /home/parag/bl_iot_sdk/customer_app/SWEMS/build_out/hal_drv/libhal_drv.a(bl_gpio.o)
                                                  /home/parag/bl_iot_sdk/customer_app/SWEMS/build_out/SWEMS/libSWEMS.a(buzzer.o)
bl_gpio_input_get                                 /home/parag/bl_iot_sdk/customer_app/SWEMS/build_out/hal_drv/libhal_drv.a(bl_gpio.o)
bl_gpio_input_get_value                           /home/parag/bl_iot_sdk/customer_app/SWEMS/build_out/hal_drv/libhal_drv.a(bl_gpio.o)
bl_gpio_int_clear                                 /home/parag/bl_iot_sdk/customer_app/SWEMS/build_out/hal_drv/libhal_drv.a(bl_gpio.o)
bl_gpio_intmask                                   /home/parag/bl_iot_sdk/customer_app/SWEMS/build_out/hal_drv/libhal_drv.a(bl_gpio.o)
bl_gpio_output_set                                /home/parag/bl_iot_sdk/customer_app/SWEMS/build_out/hal_drv/libhal_drv.a(bl_gpio.o)
                                                  /home/parag/bl_iot_sdk/customer_app/SWEMS/build_out/SWEMS/libSWEMS.a(buzzer.o)
bl_gpio_register                                  /home/parag/bl_iot_sdk/customer_app/SWEMS/build_out/hal_drv/libhal_drv.a(bl_gpio.o)
bl_irq_ctx_get                                    /home/parag/bl_iot_sdk/customer_app/SWEMS/build_out/hal_drv/libhal_drv.a(bl_irq.o)
bl_irq_default                                    /home/parag/bl_iot_sdk/customer_app/SWEMS/build_out/hal_drv/libhal_drv.a(bl_irq.o)
bl_irq_disable                                    /home/parag/bl_iot_sdk/customer_app/SWEMS/build_out/hal_drv/libhal_drv.a(bl_irq.o)
                                                  /home/parag/bl_iot_sdk/customer_app/SWEMS/build_out/hal_drv/libhal_drv.a(bl_uart.o)
bl_irq_enable                                     /home/parag/bl_iot_sdk/customer_app/SWEMS/build_out/hal_drv/libhal_drv.a(bl_irq.o)
                                                  /home/parag/bl_iot_sdk/customer_app/SWEMS/build_out/hal_drv/libhal_drv.a(bl_uart.o)
                                                  /home/parag/bl_iot_sdk/customer_app/SWEMS/build_out/hal_drv/libhal_drv.a(bl_gpio.o)
bl_irq_exception_trigger                          /home/parag/bl_iot_sdk/customer_app/SWEMS/build_out/hal_drv/libhal_drv.a(bl_irq.o)
bl_irq_init                                       /home/parag/bl_iot_sdk/customer_app/SWEMS/build_out/hal_drv/libhal_drv.a(bl_irq.o)
bl_irq_pending_clear                              /home/parag/bl_iot_sdk/customer_app/SWEMS/build_out/hal_drv/libhal_drv.a(bl_irq.o)
bl_irq_pending_set                                /home/parag/bl_iot_sdk/customer_app/SWEMS/build_out/hal_drv/libhal_drv.a(bl_irq.o)
bl_irq_register                                   /home/parag/bl_iot_sdk/customer_app/SWEMS/build_out/hal_drv/libhal_drv.a(bl_irq.o)
                                                  /home/parag/bl_iot_sdk/customer_app/SWEMS/build_out/hal_drv/libhal_drv.a(bl_uart.o)
bl_irq_register_with_ctx                          /home/parag/bl_iot_sdk/customer_app/SWEMS/build_out/hal_drv/libhal_drv.a(bl_irq.o)
                                                  /home/parag/bl_iot_sdk/customer_app/SWEMS/build_out/hal_drv/libhal_drv.a(bl_gpio.o)
bl_irq_unregister                                 /home/parag/bl_iot_sdk/customer_app/SWEMS/build_out/hal_drv/libhal_drv.a(bl_irq.o)
                                                  /home/parag/bl_iot_sdk/customer_app/SWEMS/build_out/hal_drv/libhal_drv.a(bl_uart.o)
bl_putchar                                        /home/parag/bl_iot_sdk/customer_app/SWEMS/build_out/bl602/libbl602.a(debug.o)
bl_rtc_get_counter                                /home/parag/bl_iot_sdk/customer_app/SWEMS/build_out/hal_drv/libhal_drv.a(bl_rtc.o)
bl_rtc_get_timestamp_ms                           /home/parag/bl_iot_sdk/customer_app/SWEMS/build_out/hal_drv/libhal_drv.a(bl_rtc.o)
                                                  /home/parag/bl_iot_sdk/customer_app/SWEMS/build_out/bltime/libbltime.a(bl_sys_time.o)
bl_rtc_init                                       /home/parag/bl_iot_sdk/customer_app/SWEMS/build_out/hal_drv/libhal_drv.a(bl_rtc.o)
bl_set_gpio_intmod                                /home/parag/bl_iot_sdk/customer_app/SWEMS/build_out/hal_drv/libhal_drv.a(bl_gpio.o)
bl_sys_early_init                                 /home/parag/bl_iot_sdk/customer_app/SWEMS/build_out/hal_drv/libhal_drv.a(bl_sys.o)
bl_sys_em_config                                  /home/parag/bl_iot_sdk/customer_app/SWEMS/build_out/hal_drv/libhal_drv.a(bl_sys.o)
bl_sys_init                                       /home/parag/bl_iot_sdk/customer_app/SWEMS/build_out/hal_drv/libhal_drv.a(bl_sys.o)
bl_sys_isxipaddr                                  /home/parag/bl_iot_sdk/customer_app/SWEMS/build_out/hal_drv/libhal_drv.a(bl_sys.o)
bl_sys_logall_disable                             /home/parag/bl_iot_sdk/customer_app/SWEMS/build_out/hal_drv/libhal_drv.a(bl_sys.o)
bl_sys_logall_enable                              /home/parag/bl_iot_sdk/customer_app/SWEMS/build_out/hal_drv/libhal_drv.a(bl_sys.o)
bl_sys_mfg_config                                 /home/parag/bl_iot_sdk/customer_app/SWEMS/build_out/hal_drv/libhal_drv.a(bl_sys.o)
bl_sys_reset_por                                  /home/parag/bl_iot_sdk/customer_app/SWEMS/build_out/hal_drv/libhal_drv.a(bl_sys.o)
bl_sys_reset_system                               /home/parag/bl_iot_sdk/customer_app/SWEMS/build_out/hal_drv/libhal_drv.a(bl_sys.o)
bl_sys_time_get                                   /home/parag/bl_iot_sdk/customer_app/SWEMS/build_out/bltime/libbltime.a(bl_sys_time.o)
bl_sys_time_sync                                  /home/parag/bl_iot_sdk/customer_app/SWEMS/build_out/bltime/libbltime.a(bl_sys_time.o)
bl_sys_time_sync_init                             /home/parag/bl_iot_sdk/customer_app/SWEMS/build_out/bltime/libbltime.a(bl_sys_time.o)
bl_sys_time_sync_state                            /home/parag/bl_iot_sdk/customer_app/SWEMS/build_out/bltime/libbltime.a(bl_sys_time.o)
                                                  /home/parag/bl_iot_sdk/customer_app/SWEMS/build_out/freertos_riscv_ram/libfreertos_riscv_ram.a(tasks.o)
bl_sys_time_update                                /home/parag/bl_iot_sdk/customer_app/SWEMS/build_out/bltime/libbltime.a(bl_sys_time.o)
bl_uart_data_recv                                 /home/parag/bl_iot_sdk/customer_app/SWEMS/build_out/hal_drv/libhal_drv.a(bl_uart.o)
bl_uart_data_send                                 /home/parag/bl_iot_sdk/customer_app/SWEMS/build_out/hal_drv/libhal_drv.a(bl_uart.o)
                                                  /home/parag/bl_iot_sdk/customer_app/SWEMS/build_out/bl602/libbl602.a(debug.o)
bl_uart_flush                                     /home/parag/bl_iot_sdk/customer_app/SWEMS/build_out/hal_drv/libhal_drv.a(bl_uart.o)
bl_uart_getdefconfig                              /home/parag/bl_iot_sdk/customer_app/SWEMS/build_out/hal_drv/libhal_drv.a(bl_uart.o)
bl_uart_init                                      /home/parag/bl_iot_sdk/customer_app/SWEMS/build_out/hal_drv/libhal_drv.a(bl_uart.o)
bl_uart_int_disable                               /home/parag/bl_iot_sdk/customer_app/SWEMS/build_out/hal_drv/libhal_drv.a(bl_uart.o)
bl_uart_int_enable                                /home/parag/bl_iot_sdk/customer_app/SWEMS/build_out/hal_drv/libhal_drv.a(bl_uart.o)
bl_uart_int_rx_disable                            /home/parag/bl_iot_sdk/customer_app/SWEMS/build_out/hal_drv/libhal_drv.a(bl_uart.o)
bl_uart_int_rx_enable                             /home/parag/bl_iot_sdk/customer_app/SWEMS/build_out/hal_drv/libhal_drv.a(bl_uart.o)
bl_uart_int_rx_notify_register                    /home/parag/bl_iot_sdk/customer_app/SWEMS/build_out/hal_drv/libhal_drv.a(bl_uart.o)
bl_uart_int_rx_notify_unregister                  /home/parag/bl_iot_sdk/customer_app/SWEMS/build_out/hal_drv/libhal_drv.a(bl_uart.o)
bl_uart_int_tx_disable                            /home/parag/bl_iot_sdk/customer_app/SWEMS/build_out/hal_drv/libhal_drv.a(bl_uart.o)
bl_uart_int_tx_enable                             /home/parag/bl_iot_sdk/customer_app/SWEMS/build_out/hal_drv/libhal_drv.a(bl_uart.o)
bl_uart_int_tx_notify_register                    /home/parag/bl_iot_sdk/customer_app/SWEMS/build_out/hal_drv/libhal_drv.a(bl_uart.o)
bl_uart_int_tx_notify_unregister                  /home/parag/bl_iot_sdk/customer_app/SWEMS/build_out/hal_drv/libhal_drv.a(bl_uart.o)
bl_uart_setbaud                                   /home/parag/bl_iot_sdk/customer_app/SWEMS/build_out/hal_drv/libhal_drv.a(bl_uart.o)
bl_uart_setconfig                                 /home/parag/bl_iot_sdk/customer_app/SWEMS/build_out/hal_drv/libhal_drv.a(bl_uart.o)
chCRCHTalbe                                       /home/parag/bl_iot_sdk/customer_app/SWEMS/build_out/bl602_std/libbl602_std.a(softcrc.o)
chCRCLTalbe                                       /home/parag/bl_iot_sdk/customer_app/SWEMS/build_out/bl602_std/libbl602_std.a(softcrc.o)
crc32Tab                                          /home/parag/bl_iot_sdk/customer_app/SWEMS/build_out/bl602_std/libbl602_std.a(softcrc.o)
eTaskGetState                                     /home/parag/bl_iot_sdk/customer_app/SWEMS/build_out/freertos_riscv_ram/libfreertos_riscv_ram.a(tasks.o)
ecvtbuf                                           /home/parag/bl_iot_sdk/customer_app/SWEMS/build_out/bl602/libbl602.a(debug.o)
exception_entry                                   /home/parag/bl_iot_sdk/customer_app/SWEMS/build_out/hal_drv/libhal_drv.a(bl_irq.o)
                                                  /home/parag/bl_iot_sdk/customer_app/SWEMS/build_out/freertos_riscv_ram/libfreertos_riscv_ram.a(portASM.o)
fcvtbuf                                           /home/parag/bl_iot_sdk/customer_app/SWEMS/build_out/bl602/libbl602.a(debug.o)
freertos_risc_v_trap_handler                      /home/parag/bl_iot_sdk/customer_app/SWEMS/build_out/freertos_riscv_ram/libfreertos_riscv_ram.a(portASM.o)
                                                  /home/parag/bl_iot_sdk/customer_app/SWEMS/build_out/hal_drv/libhal_drv.a(bl_sys.o)
get_f32_reg                                       /home/parag/bl_iot_sdk/customer_app/SWEMS/build_out/freertos_riscv_ram/libfreertos_riscv_ram.a(fp_asm.o)
                                                  /home/parag/bl_iot_sdk/customer_app/SWEMS/build_out/freertos_riscv_ram/libfreertos_riscv_ram.a(misaligned_ldst.o)
hal_boot2_dump                                    /home/parag/bl_iot_sdk/customer_app/SWEMS/build_out/hal_drv/libhal_drv.a(hal_boot2.o)
hal_boot2_get_active_entries                      /home/parag/bl_iot_sdk/customer_app/SWEMS/build_out/hal_drv/libhal_drv.a(hal_boot2.o)
hal_boot2_get_active_partition                    /home/parag/bl_iot_sdk/customer_app/SWEMS/build_out/hal_drv/libhal_drv.a(hal_boot2.o)
hal_boot2_get_flash_addr                          /home/parag/bl_iot_sdk/customer_app/SWEMS/build_out/hal_drv/libhal_drv.a(hal_boot2.o)
                                                  /home/parag/bl_iot_sdk/customer_app/SWEMS/build_out/bl602/libbl602.a(start.o)
hal_boot2_init                                    /home/parag/bl_iot_sdk/customer_app/SWEMS/build_out/hal_drv/libhal_drv.a(hal_boot2.o)
hal_boot2_partition_addr                          /home/parag/bl_iot_sdk/customer_app/SWEMS/build_out/hal_drv/libhal_drv.a(hal_boot2.o)
hal_boot2_partition_addr_active                   /home/parag/bl_iot_sdk/customer_app/SWEMS/build_out/hal_drv/libhal_drv.a(hal_boot2.o)
hal_boot2_partition_addr_inactive                 /home/parag/bl_iot_sdk/customer_app/SWEMS/build_out/hal_drv/libhal_drv.a(hal_boot2.o)
hal_boot2_partition_bus_addr                      /home/parag/bl_iot_sdk/customer_app/SWEMS/build_out/hal_drv/libhal_drv.a(hal_boot2.o)
hal_boot2_partition_bus_addr_active               /home/parag/bl_iot_sdk/customer_app/SWEMS/build_out/hal_drv/libhal_drv.a(hal_boot2.o)
hal_boot2_partition_bus_addr_inactive             /home/parag/bl_iot_sdk/customer_app/SWEMS/build_out/hal_drv/libhal_drv.a(hal_boot2.o)
hal_boot2_set_ptable_opt                          /home/parag/bl_iot_sdk/customer_app/SWEMS/build_out/hal_drv/libhal_drv.a(hal_boot2.o)
hal_boot2_update_ptable                           /home/parag/bl_iot_sdk/customer_app/SWEMS/build_out/hal_drv/libhal_drv.a(hal_boot2.o)
interrupt_entry                                   /home/parag/bl_iot_sdk/customer_app/SWEMS/build_out/hal_drv/libhal_drv.a(bl_irq.o)
                                                  /home/parag/bl_iot_sdk/customer_app/SWEMS/build_out/freertos_riscv_ram/libfreertos_riscv_ram.a(portASM.o)
memcpy                                            /home/parag/bl_iot_sdk/toolchain/riscv/Linux/bin/../lib/gcc/riscv64-unknown-elf/8.3.0/../../../../riscv64-unknown-elf/lib/rv32imf/ilp32f/libc.a(lib_a-memcpy.o)
                                                  /home/parag/bl_iot_sdk/customer_app/SWEMS/build_out/hal_drv/libhal_drv.a(bl_uart.o)
                                                  /home/parag/bl_iot_sdk/customer_app/SWEMS/build_out/freertos_riscv_ram/libfreertos_riscv_ram.a(queue.o)
                                                  /home/parag/bl_iot_sdk/customer_app/SWEMS/build_out/hal_drv/libhal_drv.a(bl_flash.o)
                                                  /home/parag/bl_iot_sdk/customer_app/SWEMS/build_out/hal_drv/libhal_drv.a(bl_boot2.o)
memset                                            /home/parag/bl_iot_sdk/toolchain/riscv/Linux/bin/../lib/gcc/riscv64-unknown-elf/8.3.0/../../../../riscv64-unknown-elf/lib/rv32imf/ilp32f/libc.a(lib_a-memset.o)
                                                  /home/parag/bl_iot_sdk/customer_app/SWEMS/build_out/freertos_riscv_ram/libfreertos_riscv_ram.a(heap_5.o)
                                                  /home/parag/bl_iot_sdk/customer_app/SWEMS/build_out/freertos_riscv_ram/libfreertos_riscv_ram.a(tasks.o)
misaligned_load_trap                              /home/parag/bl_iot_sdk/customer_app/SWEMS/build_out/freertos_riscv_ram/libfreertos_riscv_ram.a(misaligned_ldst.o)
                                                  /home/parag/bl_iot_sdk/customer_app/SWEMS/build_out/hal_drv/libhal_drv.a(bl_irq.o)
misaligned_store_trap                             /home/parag/bl_iot_sdk/customer_app/SWEMS/build_out/freertos_riscv_ram/libfreertos_riscv_ram.a(misaligned_ldst.o)
                                                  /home/parag/bl_iot_sdk/customer_app/SWEMS/build_out/hal_drv/libhal_drv.a(bl_irq.o)
modf                                              /home/parag/bl_iot_sdk/toolchain/riscv/Linux/bin/../lib/gcc/riscv64-unknown-elf/8.3.0/../../../../riscv64-unknown-elf/lib/rv32imf/ilp32f/libm.a(lib_a-s_modf.o)
                                                  /home/parag/bl_iot_sdk/customer_app/SWEMS/build_out/bl602/libbl602.a(debug.o)
pTrapNetCounter                                   /home/parag/bl_iot_sdk/customer_app/SWEMS/build_out/freertos_riscv_ram/libfreertos_riscv_ram.a(port.o)
                                                  /home/parag/bl_iot_sdk/customer_app/SWEMS/build_out/freertos_riscv_ram/libfreertos_riscv_ram.a(portASM.o)
pcQueueGetName                                    /home/parag/bl_iot_sdk/customer_app/SWEMS/build_out/freertos_riscv_ram/libfreertos_riscv_ram.a(queue.o)
pcTaskGetName                                     /home/parag/bl_iot_sdk/customer_app/SWEMS/build_out/freertos_riscv_ram/libfreertos_riscv_ram.a(tasks.o)
pcTimerGetName                                    /home/parag/bl_iot_sdk/customer_app/SWEMS/build_out/freertos_riscv_ram/libfreertos_riscv_ram.a(timers.o)
printf                                            /home/parag/bl_iot_sdk/customer_app/SWEMS/build_out/bl602/libbl602.a(debug.o)
                                                  /home/parag/bl_iot_sdk/customer_app/SWEMS/build_out/SWEMS/libSWEMS.a(freertos.o)
                                                  /home/parag/bl_iot_sdk/customer_app/SWEMS/build_out/hal_drv/libhal_drv.a(bl_irq.o)
pullMachineTimerCompareRegister                   /home/parag/bl_iot_sdk/customer_app/SWEMS/build_out/freertos_riscv_ram/libfreertos_riscv_ram.a(port.o)
                                                  /home/parag/bl_iot_sdk/customer_app/SWEMS/build_out/freertos_riscv_ram/libfreertos_riscv_ram.a(portASM.o)
pullNextTime                                      /home/parag/bl_iot_sdk/customer_app/SWEMS/build_out/freertos_riscv_ram/libfreertos_riscv_ram.a(port.o)
                                                  /home/parag/bl_iot_sdk/customer_app/SWEMS/build_out/freertos_riscv_ram/libfreertos_riscv_ram.a(portASM.o)
put_f32_reg                                       /home/parag/bl_iot_sdk/customer_app/SWEMS/build_out/freertos_riscv_ram/libfreertos_riscv_ram.a(fp_asm.o)
puts                                              /home/parag/bl_iot_sdk/customer_app/SWEMS/build_out/bl602/libbl602.a(debug.o)
                                                  /home/parag/bl_iot_sdk/customer_app/SWEMS/build_out/hal_drv/libhal_drv.a(bl_irq.o)
pvPortCalloc                                      /home/parag/bl_iot_sdk/customer_app/SWEMS/build_out/freertos_riscv_ram/libfreertos_riscv_ram.a(heap_5.o)
pvPortMalloc                                      /home/parag/bl_iot_sdk/customer_app/SWEMS/build_out/freertos_riscv_ram/libfreertos_riscv_ram.a(heap_5.o)
                                                  /home/parag/bl_iot_sdk/customer_app/SWEMS/build_out/freertos_riscv_ram/libfreertos_riscv_ram.a(queue.o)
                                                  /home/parag/bl_iot_sdk/customer_app/SWEMS/build_out/freertos_riscv_ram/libfreertos_riscv_ram.a(timers.o)
                                                  /home/parag/bl_iot_sdk/customer_app/SWEMS/build_out/freertos_riscv_ram/libfreertos_riscv_ram.a(tasks.o)
pvTaskIncrementMutexHeldCount                     /home/parag/bl_iot_sdk/customer_app/SWEMS/build_out/freertos_riscv_ram/libfreertos_riscv_ram.a(tasks.o)
                                                  /home/parag/bl_iot_sdk/customer_app/SWEMS/build_out/freertos_riscv_ram/libfreertos_riscv_ram.a(queue.o)
pvTimerGetTimerID                                 /home/parag/bl_iot_sdk/customer_app/SWEMS/build_out/freertos_riscv_ram/libfreertos_riscv_ram.a(timers.o)
pxCurrentTCB                                      /home/parag/bl_iot_sdk/customer_app/SWEMS/build_out/freertos_riscv_ram/libfreertos_riscv_ram.a(tasks.o)
                                                  /home/parag/bl_iot_sdk/customer_app/SWEMS/build_out/freertos_riscv_ram/libfreertos_riscv_ram.a(portASM.o)
pxPortInitialiseStack                             /home/parag/bl_iot_sdk/customer_app/SWEMS/build_out/freertos_riscv_ram/libfreertos_riscv_ram.a(portASM.o)
                                                  /home/parag/bl_iot_sdk/customer_app/SWEMS/build_out/freertos_riscv_ram/libfreertos_riscv_ram.a(tasks.o)
snprintf                                          /home/parag/bl_iot_sdk/customer_app/SWEMS/build_out/bl602/libbl602.a(debug.o)
sprintf                                           /home/parag/bl_iot_sdk/customer_app/SWEMS/build_out/bl602/libbl602.a(debug.o)
                                                  /home/parag/bl_iot_sdk/customer_app/SWEMS/build_out/freertos_riscv_ram/libfreertos_riscv_ram.a(tasks.o)
strcmp                                            /home/parag/bl_iot_sdk/toolchain/riscv/Linux/bin/../lib/gcc/riscv64-unknown-elf/8.3.0/../../../../riscv64-unknown-elf/lib/rv32imf/ilp32f/libc.a(lib_a-strcmp.o)
                                                  /home/parag/bl_iot_sdk/customer_app/SWEMS/build_out/hal_drv/libhal_drv.a(hal_boot2.o)
strcpy                                            /home/parag/bl_iot_sdk/toolchain/riscv/Linux/bin/../lib/gcc/riscv64-unknown-elf/8.3.0/../../../../riscv64-unknown-elf/lib/rv32imf/ilp32f/libc.a(lib_a-strcpy.o)
                                                  /home/parag/bl_iot_sdk/customer_app/SWEMS/build_out/freertos_riscv_ram/libfreertos_riscv_ram.a(tasks.o)
strlen                                            /home/parag/bl_iot_sdk/toolchain/riscv/Linux/bin/../lib/gcc/riscv64-unknown-elf/8.3.0/../../../../riscv64-unknown-elf/lib/rv32imf/ilp32f/libc.a(lib_a-strlen.o)
                                                  /home/parag/bl_iot_sdk/customer_app/SWEMS/build_out/bl602/libbl602.a(debug.o)
                                                  /home/parag/bl_iot_sdk/customer_app/SWEMS/build_out/freertos_riscv_ram/libfreertos_riscv_ram.a(tasks.o)
strnlen                                           /home/parag/bl_iot_sdk/toolchain/riscv/Linux/bin/../lib/gcc/riscv64-unknown-elf/8.3.0/../../../../riscv64-unknown-elf/lib/rv32imf/ilp32f/libc.a(lib_a-strnlen.o)
                                                  /home/parag/bl_iot_sdk/customer_app/SWEMS/build_out/bl602/libbl602.a(debug.o)
sys_log_all_enable                                /home/parag/bl_iot_sdk/customer_app/SWEMS/build_out/hal_drv/libhal_drv.a(bl_sys.o)
                                                  /home/parag/bl_iot_sdk/customer_app/SWEMS/build_out/bl602/libbl602.a(debug.o)
task_buzzer                                       /home/parag/bl_iot_sdk/customer_app/SWEMS/build_out/SWEMS/libSWEMS.a(buzzer.o)
                                                  /home/parag/bl_iot_sdk/customer_app/SWEMS/build_out/SWEMS/libSWEMS.a(main.o)
truly_illegal_insn                                /home/parag/bl_iot_sdk/customer_app/SWEMS/build_out/freertos_riscv_ram/libfreertos_riscv_ram.a(misaligned_ldst.o)
ucQueueGetQueueType                               /home/parag/bl_iot_sdk/customer_app/SWEMS/build_out/freertos_riscv_ram/libfreertos_riscv_ram.a(queue.o)
ulTaskNotifyTake                                  /home/parag/bl_iot_sdk/customer_app/SWEMS/build_out/freertos_riscv_ram/libfreertos_riscv_ram.a(tasks.o)
ullNextTime                                       /home/parag/bl_iot_sdk/customer_app/SWEMS/build_out/freertos_riscv_ram/libfreertos_riscv_ram.a(port.o)
uxListRemove                                      /home/parag/bl_iot_sdk/customer_app/SWEMS/build_out/freertos_riscv_ram/libfreertos_riscv_ram.a(list.o)
                                                  /home/parag/bl_iot_sdk/customer_app/SWEMS/build_out/freertos_riscv_ram/libfreertos_riscv_ram.a(timers.o)
                                                  /home/parag/bl_iot_sdk/customer_app/SWEMS/build_out/freertos_riscv_ram/libfreertos_riscv_ram.a(tasks.o)
uxQueueGetQueueNumber                             /home/parag/bl_iot_sdk/customer_app/SWEMS/build_out/freertos_riscv_ram/libfreertos_riscv_ram.a(queue.o)
uxQueueMessagesWaiting                            /home/parag/bl_iot_sdk/customer_app/SWEMS/build_out/freertos_riscv_ram/libfreertos_riscv_ram.a(queue.o)
uxQueueMessagesWaitingFromISR                     /home/parag/bl_iot_sdk/customer_app/SWEMS/build_out/freertos_riscv_ram/libfreertos_riscv_ram.a(queue.o)
uxQueueSpacesAvailable                            /home/parag/bl_iot_sdk/customer_app/SWEMS/build_out/freertos_riscv_ram/libfreertos_riscv_ram.a(queue.o)
uxTaskGetNumberOfTasks                            /home/parag/bl_iot_sdk/customer_app/SWEMS/build_out/freertos_riscv_ram/libfreertos_riscv_ram.a(tasks.o)
uxTaskGetStackHighWaterMark                       /home/parag/bl_iot_sdk/customer_app/SWEMS/build_out/freertos_riscv_ram/libfreertos_riscv_ram.a(tasks.o)
uxTaskGetSystemState                              /home/parag/bl_iot_sdk/customer_app/SWEMS/build_out/freertos_riscv_ram/libfreertos_riscv_ram.a(tasks.o)
uxTaskGetTaskNumber                               /home/parag/bl_iot_sdk/customer_app/SWEMS/build_out/freertos_riscv_ram/libfreertos_riscv_ram.a(tasks.o)
uxTaskPriorityGet                                 /home/parag/bl_iot_sdk/customer_app/SWEMS/build_out/freertos_riscv_ram/libfreertos_riscv_ram.a(tasks.o)
uxTaskPriorityGetFromISR                          /home/parag/bl_iot_sdk/customer_app/SWEMS/build_out/freertos_riscv_ram/libfreertos_riscv_ram.a(tasks.o)
uxTaskResetEventItemValue                         /home/parag/bl_iot_sdk/customer_app/SWEMS/build_out/freertos_riscv_ram/libfreertos_riscv_ram.a(tasks.o)
uxTimerGetTimerNumber                             /home/parag/bl_iot_sdk/customer_app/SWEMS/build_out/freertos_riscv_ram/libfreertos_riscv_ram.a(timers.o)
uxTimerIncrementsForOneTick                       /home/parag/bl_iot_sdk/customer_app/SWEMS/build_out/freertos_riscv_ram/libfreertos_riscv_ram.a(port.o)
                                                  /home/parag/bl_iot_sdk/customer_app/SWEMS/build_out/freertos_riscv_ram/libfreertos_riscv_ram.a(portASM.o)
uxTopUsedPriority                                 /home/parag/bl_iot_sdk/customer_app/SWEMS/build_out/SWEMS/libSWEMS.a(freertos.o)
vApplicationGetIdleTaskMemory                     /home/parag/bl_iot_sdk/customer_app/SWEMS/build_out/SWEMS/libSWEMS.a(freertos.o)
                                                  /home/parag/bl_iot_sdk/customer_app/SWEMS/build_out/freertos_riscv_ram/libfreertos_riscv_ram.a(tasks.o)
vApplicationGetTimerTaskMemory                    /home/parag/bl_iot_sdk/customer_app/SWEMS/build_out/SWEMS/libSWEMS.a(freertos.o)
                                                  /home/parag/bl_iot_sdk/customer_app/SWEMS/build_out/freertos_riscv_ram/libfreertos_riscv_ram.a(timers.o)
vApplicationIdleHook                              /home/parag/bl_iot_sdk/customer_app/SWEMS/build_out/SWEMS/libSWEMS.a(freertos.o)
                                                  /home/parag/bl_iot_sdk/customer_app/SWEMS/build_out/freertos_riscv_ram/libfreertos_riscv_ram.a(tasks.o)
vApplicationMallocFailedHook                      /home/parag/bl_iot_sdk/customer_app/SWEMS/build_out/SWEMS/libSWEMS.a(freertos.o)
                                                  /home/parag/bl_iot_sdk/customer_app/SWEMS/build_out/freertos_riscv_ram/libfreertos_riscv_ram.a(heap_5.o)
vApplicationStackOverflowHook                     /home/parag/bl_iot_sdk/customer_app/SWEMS/build_out/SWEMS/libSWEMS.a(freertos.o)
                                                  /home/parag/bl_iot_sdk/customer_app/SWEMS/build_out/freertos_riscv_ram/libfreertos_riscv_ram.a(tasks.o)
vAssertCalled                                     /home/parag/bl_iot_sdk/customer_app/SWEMS/build_out/SWEMS/libSWEMS.a(freertos.o)
                                                  /home/parag/bl_iot_sdk/customer_app/SWEMS/build_out/freertos_riscv_ram/libfreertos_riscv_ram.a(queue.o)
                                                  /home/parag/bl_iot_sdk/customer_app/SWEMS/build_out/freertos_riscv_ram/libfreertos_riscv_ram.a(heap_5.o)
                                                  /home/parag/bl_iot_sdk/customer_app/SWEMS/build_out/freertos_riscv_ram/libfreertos_riscv_ram.a(port.o)
                                                  /home/parag/bl_iot_sdk/customer_app/SWEMS/build_out/freertos_riscv_ram/libfreertos_riscv_ram.a(timers.o)
                                                  /home/parag/bl_iot_sdk/customer_app/SWEMS/build_out/freertos_riscv_ram/libfreertos_riscv_ram.a(tasks.o)
vListInitialise                                   /home/parag/bl_iot_sdk/customer_app/SWEMS/build_out/freertos_riscv_ram/libfreertos_riscv_ram.a(list.o)
                                                  /home/parag/bl_iot_sdk/customer_app/SWEMS/build_out/freertos_riscv_ram/libfreertos_riscv_ram.a(queue.o)
                                                  /home/parag/bl_iot_sdk/customer_app/SWEMS/build_out/freertos_riscv_ram/libfreertos_riscv_ram.a(timers.o)
                                                  /home/parag/bl_iot_sdk/customer_app/SWEMS/build_out/freertos_riscv_ram/libfreertos_riscv_ram.a(tasks.o)
vListInitialiseItem                               /home/parag/bl_iot_sdk/customer_app/SWEMS/build_out/freertos_riscv_ram/libfreertos_riscv_ram.a(list.o)
                                                  /home/parag/bl_iot_sdk/customer_app/SWEMS/build_out/freertos_riscv_ram/libfreertos_riscv_ram.a(timers.o)
                                                  /home/parag/bl_iot_sdk/customer_app/SWEMS/build_out/freertos_riscv_ram/libfreertos_riscv_ram.a(tasks.o)
vListInsert                                       /home/parag/bl_iot_sdk/customer_app/SWEMS/build_out/freertos_riscv_ram/libfreertos_riscv_ram.a(list.o)
                                                  /home/parag/bl_iot_sdk/customer_app/SWEMS/build_out/freertos_riscv_ram/libfreertos_riscv_ram.a(timers.o)
                                                  /home/parag/bl_iot_sdk/customer_app/SWEMS/build_out/freertos_riscv_ram/libfreertos_riscv_ram.a(tasks.o)
vListInsertEnd                                    /home/parag/bl_iot_sdk/customer_app/SWEMS/build_out/freertos_riscv_ram/libfreertos_riscv_ram.a(list.o)
                                                  /home/parag/bl_iot_sdk/customer_app/SWEMS/build_out/freertos_riscv_ram/libfreertos_riscv_ram.a(tasks.o)
vMainUARTPrintString                              /home/parag/bl_iot_sdk/customer_app/SWEMS/build_out/bl602/libbl602.a(debug.o)
vPortDefineHeapRegions                            /home/parag/bl_iot_sdk/customer_app/SWEMS/build_out/freertos_riscv_ram/libfreertos_riscv_ram.a(heap_5.o)
vPortEndScheduler                                 /home/parag/bl_iot_sdk/customer_app/SWEMS/build_out/freertos_riscv_ram/libfreertos_riscv_ram.a(port.o)
                                                  /home/parag/bl_iot_sdk/customer_app/SWEMS/build_out/freertos_riscv_ram/libfreertos_riscv_ram.a(tasks.o)
vPortFree                                         /home/parag/bl_iot_sdk/customer_app/SWEMS/build_out/freertos_riscv_ram/libfreertos_riscv_ram.a(heap_5.o)
                                                  /home/parag/bl_iot_sdk/customer_app/SWEMS/build_out/freertos_riscv_ram/libfreertos_riscv_ram.a(queue.o)
                                                  /home/parag/bl_iot_sdk/customer_app/SWEMS/build_out/freertos_riscv_ram/libfreertos_riscv_ram.a(timers.o)
                                                  /home/parag/bl_iot_sdk/customer_app/SWEMS/build_out/freertos_riscv_ram/libfreertos_riscv_ram.a(tasks.o)
vPortSetupTimerInterrupt                          /home/parag/bl_iot_sdk/customer_app/SWEMS/build_out/freertos_riscv_ram/libfreertos_riscv_ram.a(port.o)
vQueueAddToRegistry                               /home/parag/bl_iot_sdk/customer_app/SWEMS/build_out/freertos_riscv_ram/libfreertos_riscv_ram.a(queue.o)
                                                  /home/parag/bl_iot_sdk/customer_app/SWEMS/build_out/freertos_riscv_ram/libfreertos_riscv_ram.a(timers.o)
vQueueDelete                                      /home/parag/bl_iot_sdk/customer_app/SWEMS/build_out/freertos_riscv_ram/libfreertos_riscv_ram.a(queue.o)
vQueueSetQueueNumber                              /home/parag/bl_iot_sdk/customer_app/SWEMS/build_out/freertos_riscv_ram/libfreertos_riscv_ram.a(queue.o)
vQueueUnregisterQueue                             /home/parag/bl_iot_sdk/customer_app/SWEMS/build_out/freertos_riscv_ram/libfreertos_riscv_ram.a(queue.o)
vQueueWaitForMessageRestricted                    /home/parag/bl_iot_sdk/customer_app/SWEMS/build_out/freertos_riscv_ram/libfreertos_riscv_ram.a(queue.o)
                                                  /home/parag/bl_iot_sdk/customer_app/SWEMS/build_out/freertos_riscv_ram/libfreertos_riscv_ram.a(timers.o)
vTaskDelay                                        /home/parag/bl_iot_sdk/customer_app/SWEMS/build_out/freertos_riscv_ram/libfreertos_riscv_ram.a(tasks.o)
                                                  /home/parag/bl_iot_sdk/customer_app/SWEMS/build_out/SWEMS/libSWEMS.a(buzzer.o)
vTaskDelayUntil                                   /home/parag/bl_iot_sdk/customer_app/SWEMS/build_out/freertos_riscv_ram/libfreertos_riscv_ram.a(tasks.o)
vTaskDelete                                       /home/parag/bl_iot_sdk/customer_app/SWEMS/build_out/freertos_riscv_ram/libfreertos_riscv_ram.a(tasks.o)
vTaskEndScheduler                                 /home/parag/bl_iot_sdk/customer_app/SWEMS/build_out/freertos_riscv_ram/libfreertos_riscv_ram.a(tasks.o)
vTaskEnterCritical                                /home/parag/bl_iot_sdk/customer_app/SWEMS/build_out/freertos_riscv_ram/libfreertos_riscv_ram.a(tasks.o)
                                                  /home/parag/bl_iot_sdk/customer_app/SWEMS/build_out/bltime/libbltime.a(bl_sys_time.o)
                                                  /home/parag/bl_iot_sdk/customer_app/SWEMS/build_out/freertos_riscv_ram/libfreertos_riscv_ram.a(queue.o)
                                                  /home/parag/bl_iot_sdk/customer_app/SWEMS/build_out/freertos_riscv_ram/libfreertos_riscv_ram.a(timers.o)
vTaskExitCritical                                 /home/parag/bl_iot_sdk/customer_app/SWEMS/build_out/freertos_riscv_ram/libfreertos_riscv_ram.a(tasks.o)
                                                  /home/parag/bl_iot_sdk/customer_app/SWEMS/build_out/bltime/libbltime.a(bl_sys_time.o)
                                                  /home/parag/bl_iot_sdk/customer_app/SWEMS/build_out/freertos_riscv_ram/libfreertos_riscv_ram.a(queue.o)
                                                  /home/parag/bl_iot_sdk/customer_app/SWEMS/build_out/freertos_riscv_ram/libfreertos_riscv_ram.a(timers.o)
vTaskGetInfo                                      /home/parag/bl_iot_sdk/customer_app/SWEMS/build_out/freertos_riscv_ram/libfreertos_riscv_ram.a(tasks.o)
vTaskInternalSetTimeOutState                      /home/parag/bl_iot_sdk/customer_app/SWEMS/build_out/freertos_riscv_ram/libfreertos_riscv_ram.a(tasks.o)
                                                  /home/parag/bl_iot_sdk/customer_app/SWEMS/build_out/freertos_riscv_ram/libfreertos_riscv_ram.a(queue.o)
vTaskList                                         /home/parag/bl_iot_sdk/customer_app/SWEMS/build_out/freertos_riscv_ram/libfreertos_riscv_ram.a(tasks.o)
vTaskMissedYield                                  /home/parag/bl_iot_sdk/customer_app/SWEMS/build_out/freertos_riscv_ram/libfreertos_riscv_ram.a(tasks.o)
                                                  /home/parag/bl_iot_sdk/customer_app/SWEMS/build_out/freertos_riscv_ram/libfreertos_riscv_ram.a(queue.o)
vTaskNotifyGiveFromISR                            /home/parag/bl_iot_sdk/customer_app/SWEMS/build_out/freertos_riscv_ram/libfreertos_riscv_ram.a(tasks.o)
vTaskPlaceOnEventList                             /home/parag/bl_iot_sdk/customer_app/SWEMS/build_out/freertos_riscv_ram/libfreertos_riscv_ram.a(tasks.o)
                                                  /home/parag/bl_iot_sdk/customer_app/SWEMS/build_out/freertos_riscv_ram/libfreertos_riscv_ram.a(queue.o)
vTaskPlaceOnEventListRestricted                   /home/parag/bl_iot_sdk/customer_app/SWEMS/build_out/freertos_riscv_ram/libfreertos_riscv_ram.a(tasks.o)
                                                  /home/parag/bl_iot_sdk/customer_app/SWEMS/build_out/freertos_riscv_ram/libfreertos_riscv_ram.a(queue.o)
vTaskPlaceOnUnorderedEventList                    /home/parag/bl_iot_sdk/customer_app/SWEMS/build_out/freertos_riscv_ram/libfreertos_riscv_ram.a(tasks.o)
vTaskPriorityDisinheritAfterTimeout               /home/parag/bl_iot_sdk/customer_app/SWEMS/build_out/freertos_riscv_ram/libfreertos_riscv_ram.a(tasks.o)
                                                  /home/parag/bl_iot_sdk/customer_app/SWEMS/build_out/freertos_riscv_ram/libfreertos_riscv_ram.a(queue.o)
vTaskPrioritySet                                  /home/parag/bl_iot_sdk/customer_app/SWEMS/build_out/freertos_riscv_ram/libfreertos_riscv_ram.a(tasks.o)
vTaskRemoveFromUnorderedEventList                 /home/parag/bl_iot_sdk/customer_app/SWEMS/build_out/freertos_riscv_ram/libfreertos_riscv_ram.a(tasks.o)
vTaskResume                                       /home/parag/bl_iot_sdk/customer_app/SWEMS/build_out/freertos_riscv_ram/libfreertos_riscv_ram.a(tasks.o)
vTaskSetTaskNumber                                /home/parag/bl_iot_sdk/customer_app/SWEMS/build_out/freertos_riscv_ram/libfreertos_riscv_ram.a(tasks.o)
vTaskSetTimeOutState                              /home/parag/bl_iot_sdk/customer_app/SWEMS/build_out/freertos_riscv_ram/libfreertos_riscv_ram.a(tasks.o)
vTaskStartScheduler                               /home/parag/bl_iot_sdk/customer_app/SWEMS/build_out/freertos_riscv_ram/libfreertos_riscv_ram.a(tasks.o)
                                                  /home/parag/bl_iot_sdk/customer_app/SWEMS/build_out/SWEMS/libSWEMS.a(main.o)
vTaskStepTickSafe                                 /home/parag/bl_iot_sdk/customer_app/SWEMS/build_out/freertos_riscv_ram/libfreertos_riscv_ram.a(tasks.o)
                                                  /home/parag/bl_iot_sdk/customer_app/SWEMS/build_out/bltime/libbltime.a(bl_sys_time.o)
vTaskSuspend                                      /home/parag/bl_iot_sdk/customer_app/SWEMS/build_out/freertos_riscv_ram/libfreertos_riscv_ram.a(tasks.o)
vTaskSuspendAll                                   /home/parag/bl_iot_sdk/customer_app/SWEMS/build_out/freertos_riscv_ram/libfreertos_riscv_ram.a(tasks.o)
                                                  /home/parag/bl_iot_sdk/customer_app/SWEMS/build_out/freertos_riscv_ram/libfreertos_riscv_ram.a(queue.o)
                                                  /home/parag/bl_iot_sdk/customer_app/SWEMS/build_out/freertos_riscv_ram/libfreertos_riscv_ram.a(heap_5.o)
                                                  /home/parag/bl_iot_sdk/customer_app/SWEMS/build_out/freertos_riscv_ram/libfreertos_riscv_ram.a(timers.o)
vTaskSwitchContext                                /home/parag/bl_iot_sdk/customer_app/SWEMS/build_out/freertos_riscv_ram/libfreertos_riscv_ram.a(tasks.o)
                                                  /home/parag/bl_iot_sdk/customer_app/SWEMS/build_out/freertos_riscv_ram/libfreertos_riscv_ram.a(portASM.o)
vTimerSetReloadMode                               /home/parag/bl_iot_sdk/customer_app/SWEMS/build_out/freertos_riscv_ram/libfreertos_riscv_ram.a(timers.o)
vTimerSetTimerID                                  /home/parag/bl_iot_sdk/customer_app/SWEMS/build_out/freertos_riscv_ram/libfreertos_riscv_ram.a(timers.o)
vTimerSetTimerNumber                              /home/parag/bl_iot_sdk/customer_app/SWEMS/build_out/freertos_riscv_ram/libfreertos_riscv_ram.a(timers.o)
vprint                                            /home/parag/bl_iot_sdk/customer_app/SWEMS/build_out/bl602/libbl602.a(debug.o)
vsnprintf                                         /home/parag/bl_iot_sdk/customer_app/SWEMS/build_out/bl602/libbl602.a(debug.o)
vsprintf                                          /home/parag/bl_iot_sdk/customer_app/SWEMS/build_out/bl602/libbl602.a(debug.o)
xISRStackTop                                      /home/parag/bl_iot_sdk/customer_app/SWEMS/build_out/freertos_riscv_ram/libfreertos_riscv_ram.a(port.o)
                                                  /home/parag/bl_iot_sdk/customer_app/SWEMS/build_out/freertos_riscv_ram/libfreertos_riscv_ram.a(portASM.o)
xPortGetFreeHeapSize                              /home/parag/bl_iot_sdk/customer_app/SWEMS/build_out/freertos_riscv_ram/libfreertos_riscv_ram.a(heap_5.o)
                                                  /home/parag/bl_iot_sdk/customer_app/SWEMS/build_out/SWEMS/libSWEMS.a(freertos.o)
xPortGetMinimumEverFreeHeapSize                   /home/parag/bl_iot_sdk/customer_app/SWEMS/build_out/freertos_riscv_ram/libfreertos_riscv_ram.a(heap_5.o)
xPortStartFirstTask                               /home/parag/bl_iot_sdk/customer_app/SWEMS/build_out/freertos_riscv_ram/libfreertos_riscv_ram.a(portASM.o)
                                                  /home/parag/bl_iot_sdk/customer_app/SWEMS/build_out/freertos_riscv_ram/libfreertos_riscv_ram.a(port.o)
xPortStartScheduler                               /home/parag/bl_iot_sdk/customer_app/SWEMS/build_out/freertos_riscv_ram/libfreertos_riscv_ram.a(port.o)
                                                  /home/parag/bl_iot_sdk/customer_app/SWEMS/build_out/freertos_riscv_ram/libfreertos_riscv_ram.a(tasks.o)
xQueueCreateCountingSemaphore                     /home/parag/bl_iot_sdk/customer_app/SWEMS/build_out/freertos_riscv_ram/libfreertos_riscv_ram.a(queue.o)
xQueueCreateCountingSemaphoreStatic               /home/parag/bl_iot_sdk/customer_app/SWEMS/build_out/freertos_riscv_ram/libfreertos_riscv_ram.a(queue.o)
xQueueCreateMutex                                 /home/parag/bl_iot_sdk/customer_app/SWEMS/build_out/freertos_riscv_ram/libfreertos_riscv_ram.a(queue.o)
xQueueCreateMutexStatic                           /home/parag/bl_iot_sdk/customer_app/SWEMS/build_out/freertos_riscv_ram/libfreertos_riscv_ram.a(queue.o)
xQueueGenericCreate                               /home/parag/bl_iot_sdk/customer_app/SWEMS/build_out/freertos_riscv_ram/libfreertos_riscv_ram.a(queue.o)
xQueueGenericCreateStatic                         /home/parag/bl_iot_sdk/customer_app/SWEMS/build_out/freertos_riscv_ram/libfreertos_riscv_ram.a(queue.o)
                                                  /home/parag/bl_iot_sdk/customer_app/SWEMS/build_out/freertos_riscv_ram/libfreertos_riscv_ram.a(timers.o)
xQueueGenericReset                                /home/parag/bl_iot_sdk/customer_app/SWEMS/build_out/freertos_riscv_ram/libfreertos_riscv_ram.a(queue.o)
xQueueGenericSend                                 /home/parag/bl_iot_sdk/customer_app/SWEMS/build_out/freertos_riscv_ram/libfreertos_riscv_ram.a(queue.o)
                                                  /home/parag/bl_iot_sdk/customer_app/SWEMS/build_out/freertos_riscv_ram/libfreertos_riscv_ram.a(timers.o)
xQueueGenericSendFromISR                          /home/parag/bl_iot_sdk/customer_app/SWEMS/build_out/freertos_riscv_ram/libfreertos_riscv_ram.a(queue.o)
                                                  /home/parag/bl_iot_sdk/customer_app/SWEMS/build_out/freertos_riscv_ram/libfreertos_riscv_ram.a(timers.o)
xQueueGiveFromISR                                 /home/parag/bl_iot_sdk/customer_app/SWEMS/build_out/freertos_riscv_ram/libfreertos_riscv_ram.a(queue.o)
xQueueGiveMutexRecursive                          /home/parag/bl_iot_sdk/customer_app/SWEMS/build_out/freertos_riscv_ram/libfreertos_riscv_ram.a(queue.o)
xQueueIsQueueEmptyFromISR                         /home/parag/bl_iot_sdk/customer_app/SWEMS/build_out/freertos_riscv_ram/libfreertos_riscv_ram.a(queue.o)
xQueueIsQueueFullFromISR                          /home/parag/bl_iot_sdk/customer_app/SWEMS/build_out/freertos_riscv_ram/libfreertos_riscv_ram.a(queue.o)
xQueuePeek                                        /home/parag/bl_iot_sdk/customer_app/SWEMS/build_out/freertos_riscv_ram/libfreertos_riscv_ram.a(queue.o)
xQueuePeekFromISR                                 /home/parag/bl_iot_sdk/customer_app/SWEMS/build_out/freertos_riscv_ram/libfreertos_riscv_ram.a(queue.o)
xQueueReceive                                     /home/parag/bl_iot_sdk/customer_app/SWEMS/build_out/freertos_riscv_ram/libfreertos_riscv_ram.a(queue.o)
                                                  /home/parag/bl_iot_sdk/customer_app/SWEMS/build_out/freertos_riscv_ram/libfreertos_riscv_ram.a(timers.o)
xQueueReceiveFromISR                              /home/parag/bl_iot_sdk/customer_app/SWEMS/build_out/freertos_riscv_ram/libfreertos_riscv_ram.a(queue.o)
xQueueRegistry                                    /home/parag/bl_iot_sdk/customer_app/SWEMS/build_out/freertos_riscv_ram/libfreertos_riscv_ram.a(queue.o)
xQueueSemaphoreTake                               /home/parag/bl_iot_sdk/customer_app/SWEMS/build_out/freertos_riscv_ram/libfreertos_riscv_ram.a(queue.o)
xQueueTakeMutexRecursive                          /home/parag/bl_iot_sdk/customer_app/SWEMS/build_out/freertos_riscv_ram/libfreertos_riscv_ram.a(queue.o)
xTaskCheckForTimeOut                              /home/parag/bl_iot_sdk/customer_app/SWEMS/build_out/freertos_riscv_ram/libfreertos_riscv_ram.a(tasks.o)
                                                  /home/parag/bl_iot_sdk/customer_app/SWEMS/build_out/freertos_riscv_ram/libfreertos_riscv_ram.a(queue.o)
xTaskCreate                                       /home/parag/bl_iot_sdk/customer_app/SWEMS/build_out/freertos_riscv_ram/libfreertos_riscv_ram.a(tasks.o)
xTaskCreateStatic                                 /home/parag/bl_iot_sdk/customer_app/SWEMS/build_out/freertos_riscv_ram/libfreertos_riscv_ram.a(tasks.o)
                                                  /home/parag/bl_iot_sdk/customer_app/SWEMS/build_out/freertos_riscv_ram/libfreertos_riscv_ram.a(timers.o)
                                                  /home/parag/bl_iot_sdk/customer_app/SWEMS/build_out/SWEMS/libSWEMS.a(main.o)
xTaskGenericNotify                                /home/parag/bl_iot_sdk/customer_app/SWEMS/build_out/freertos_riscv_ram/libfreertos_riscv_ram.a(tasks.o)
xTaskGenericNotifyFromISR                         /home/parag/bl_iot_sdk/customer_app/SWEMS/build_out/freertos_riscv_ram/libfreertos_riscv_ram.a(tasks.o)
xTaskGetCurrentTaskHandle                         /home/parag/bl_iot_sdk/customer_app/SWEMS/build_out/freertos_riscv_ram/libfreertos_riscv_ram.a(tasks.o)
                                                  /home/parag/bl_iot_sdk/customer_app/SWEMS/build_out/freertos_riscv_ram/libfreertos_riscv_ram.a(queue.o)
xTaskGetSchedulerState                            /home/parag/bl_iot_sdk/customer_app/SWEMS/build_out/freertos_riscv_ram/libfreertos_riscv_ram.a(tasks.o)
                                                  /home/parag/bl_iot_sdk/customer_app/SWEMS/build_out/freertos_riscv_ram/libfreertos_riscv_ram.a(queue.o)
                                                  /home/parag/bl_iot_sdk/customer_app/SWEMS/build_out/freertos_riscv_ram/libfreertos_riscv_ram.a(timers.o)
xTaskGetTickCount                                 /home/parag/bl_iot_sdk/customer_app/SWEMS/build_out/freertos_riscv_ram/libfreertos_riscv_ram.a(tasks.o)
                                                  /home/parag/bl_iot_sdk/customer_app/SWEMS/build_out/bltime/libbltime.a(bl_sys_time.o)
                                                  /home/parag/bl_iot_sdk/customer_app/SWEMS/build_out/freertos_riscv_ram/libfreertos_riscv_ram.a(timers.o)
xTaskGetTickCount2                                /home/parag/bl_iot_sdk/customer_app/SWEMS/build_out/freertos_riscv_ram/libfreertos_riscv_ram.a(tasks.o)
xTaskGetTickCountFromISR                          /home/parag/bl_iot_sdk/customer_app/SWEMS/build_out/freertos_riscv_ram/libfreertos_riscv_ram.a(tasks.o)
xTaskIncrementTick                                /home/parag/bl_iot_sdk/customer_app/SWEMS/build_out/freertos_riscv_ram/libfreertos_riscv_ram.a(tasks.o)
                                                  /home/parag/bl_iot_sdk/customer_app/SWEMS/build_out/freertos_riscv_ram/libfreertos_riscv_ram.a(portASM.o)
xTaskNotifyStateClear                             /home/parag/bl_iot_sdk/customer_app/SWEMS/build_out/freertos_riscv_ram/libfreertos_riscv_ram.a(tasks.o)
xTaskNotifyWait                                   /home/parag/bl_iot_sdk/customer_app/SWEMS/build_out/freertos_riscv_ram/libfreertos_riscv_ram.a(tasks.o)
xTaskPriorityDisinherit                           /home/parag/bl_iot_sdk/customer_app/SWEMS/build_out/freertos_riscv_ram/libfreertos_riscv_ram.a(tasks.o)
                                                  /home/parag/bl_iot_sdk/customer_app/SWEMS/build_out/freertos_riscv_ram/libfreertos_riscv_ram.a(queue.o)
xTaskPriorityInherit                              /home/parag/bl_iot_sdk/customer_app/SWEMS/build_out/freertos_riscv_ram/libfreertos_riscv_ram.a(tasks.o)
                                                  /home/parag/bl_iot_sdk/customer_app/SWEMS/build_out/freertos_riscv_ram/libfreertos_riscv_ram.a(queue.o)
xTaskRemoveFromEventList                          /home/parag/bl_iot_sdk/customer_app/SWEMS/build_out/freertos_riscv_ram/libfreertos_riscv_ram.a(tasks.o)
                                                  /home/parag/bl_iot_sdk/customer_app/SWEMS/build_out/freertos_riscv_ram/libfreertos_riscv_ram.a(queue.o)
xTaskResumeAll                                    /home/parag/bl_iot_sdk/customer_app/SWEMS/build_out/freertos_riscv_ram/libfreertos_riscv_ram.a(tasks.o)
                                                  /home/parag/bl_iot_sdk/customer_app/SWEMS/build_out/freertos_riscv_ram/libfreertos_riscv_ram.a(queue.o)
                                                  /home/parag/bl_iot_sdk/customer_app/SWEMS/build_out/freertos_riscv_ram/libfreertos_riscv_ram.a(heap_5.o)
                                                  /home/parag/bl_iot_sdk/customer_app/SWEMS/build_out/freertos_riscv_ram/libfreertos_riscv_ram.a(timers.o)
xTaskResumeFromISR                                /home/parag/bl_iot_sdk/customer_app/SWEMS/build_out/freertos_riscv_ram/libfreertos_riscv_ram.a(tasks.o)
xTimerCreate                                      /home/parag/bl_iot_sdk/customer_app/SWEMS/build_out/freertos_riscv_ram/libfreertos_riscv_ram.a(timers.o)
xTimerCreateStatic                                /home/parag/bl_iot_sdk/customer_app/SWEMS/build_out/freertos_riscv_ram/libfreertos_riscv_ram.a(timers.o)
xTimerCreateTimerTask                             /home/parag/bl_iot_sdk/customer_app/SWEMS/build_out/freertos_riscv_ram/libfreertos_riscv_ram.a(timers.o)
                                                  /home/parag/bl_iot_sdk/customer_app/SWEMS/build_out/freertos_riscv_ram/libfreertos_riscv_ram.a(tasks.o)
xTimerGenericCommand                              /home/parag/bl_iot_sdk/customer_app/SWEMS/build_out/freertos_riscv_ram/libfreertos_riscv_ram.a(timers.o)
xTimerGetExpiryTime                               /home/parag/bl_iot_sdk/customer_app/SWEMS/build_out/freertos_riscv_ram/libfreertos_riscv_ram.a(timers.o)
xTimerGetPeriod                                   /home/parag/bl_iot_sdk/customer_app/SWEMS/build_out/freertos_riscv_ram/libfreertos_riscv_ram.a(timers.o)
xTimerGetTimerDaemonTaskHandle                    /home/parag/bl_iot_sdk/customer_app/SWEMS/build_out/freertos_riscv_ram/libfreertos_riscv_ram.a(timers.o)
xTimerIsTimerActive                               /home/parag/bl_iot_sdk/customer_app/SWEMS/build_out/freertos_riscv_ram/libfreertos_riscv_ram.a(timers.o)
xTimerPendFunctionCall                            /home/parag/bl_iot_sdk/customer_app/SWEMS/build_out/freertos_riscv_ram/libfreertos_riscv_ram.a(timers.o)
xTimerPendFunctionCallFromISR                     /home/parag/bl_iot_sdk/customer_app/SWEMS/build_out/freertos_riscv_ram/libfreertos_riscv_ram.a(timers.o)
